 Assignment 7

 Timestamp is 5df1b373 (Wed Dec 11 21:26:43 2019)

 Preferred load address is 00400000

 Start         Length     Name                   Class
 0001:00000000 00010000H .textbss                DATA
 0002:00000000 000031d0H .text$di                CODE
 0002:000031d0 0001a3c0H .text$mn                CODE
 0002:0001d590 00003d30H .text$x                 CODE
 0002:000212c0 00001012H .text$yd                CODE
 0003:00000000 00000104H .CRT$XCA                DATA
 0003:00000104 00000104H .CRT$XCAA               DATA
 0003:00000208 00000104H .CRT$XCL                DATA
 0003:0000030c 00000104H .CRT$XCZ                DATA
 0003:00000410 00000104H .CRT$XIA                DATA
 0003:00000514 00000104H .CRT$XIAA               DATA
 0003:00000618 00000104H .CRT$XIAC               DATA
 0003:0000071c 00000104H .CRT$XIZ                DATA
 0003:00000820 00000104H .CRT$XPA                DATA
 0003:00000924 00000104H .CRT$XPZ                DATA
 0003:00000a28 00000104H .CRT$XTA                DATA
 0003:00000b2c 00000104H .CRT$XTZ                DATA
 0003:00000c30 000023a4H .rdata                  DATA
 0003:00002fd4 00000888H .rdata$r                DATA
 0003:0000385c 00000184H .rdata$zzzdbg           DATA
 0003:000039e0 00000104H .rtc$IAA                DATA
 0003:00003ae4 0000010cH .rtc$IMZ                DATA
 0003:00003bf0 00000104H .rtc$IZZ                DATA
 0003:00003cf4 00000104H .rtc$TAA                DATA
 0003:00003df8 0000010cH .rtc$TMZ                DATA
 0003:00003f04 00000104H .rtc$TZZ                DATA
 0003:00004008 00002977H .xdata$x                DATA
 0003:0000697f 00000000H .edata                  DATA
 0004:00000000 00000144H .data                   DATA
 0004:00000144 000004bcH .data$r                 DATA
 0004:00000600 00000480H .bss                    DATA
 0005:00000000 000003acH .idata$5                DATA
 0005:000003ac 00000050H .idata$2                DATA
 0005:000003fc 00000014H .idata$3                DATA
 0005:00000410 000003acH .idata$4                DATA
 0005:000007bc 000018dfH .idata$6                DATA
 0006:00000000 0000016aH .msvcjmc                DATA
 0007:00000000 00000104H .00cfg                  DATA
 0008:00000000 00000170H .rsrc$01                DATA
 0008:00000170 000002ccH .rsrc$02                DATA

  Address         Publics by Value              Rva+Base       Lib:Object

 0000:00000000       ___guard_iat_count         00000000     <absolute>
 0000:00000000       ___safe_se_handler_count   00000000     <absolute>
 0000:00000000       ___hybrid_auxiliary_iat    00000000     <absolute>
 0000:00000000       ___guard_iat_table         00000000     <absolute>
 0000:00000000       ___safe_se_handler_table   00000000     <absolute>
 0000:00000000       ___guard_longjmp_count     00000000     <absolute>
 0000:00000000       ___hybrid_code_map         00000000     <absolute>
 0000:00000000       ___dynamic_value_reloc_table 00000000     <absolute>
 0000:00000000       ___enclave_config          00000000     <absolute>
 0000:00000000       ___guard_fids_table        00000000     <absolute>
 0000:00000000       ___AbsoluteZero            00000000     <absolute>
 0000:00000000       ___volatile_metadata       00000000     <absolute>
 0000:00000000       ___guard_fids_count        00000000     <absolute>
 0000:00000000       ___guard_longjmp_table     00000000     <absolute>
 0000:00000000       ___hybrid_code_map_count   00000000     <absolute>
 0000:00000100       ___guard_flags             00000100     <absolute>
 0000:00000000       ___ImageBase               00400000     <linker-defined>
 0001:00000000       __enc$textbss$begin        00401000     <linker-defined>
 0001:00010000       __enc$textbss$end          00411000     <linker-defined>
 0002:000031d0       ??$?0$$QAV?$basic_string@DU?$char_traits@D@std@@V?$allocator@D@2@@std@@$$Z$$V@?$pair@$$CBV?$basic_string@DU?$char_traits@D@std@@V?$allocator@D@2@@std@@PAVAccount@@@std@@QAE@Upiecewise_construct_t@1@V?$tuple@$$QAV?$basic_string@DU?$char_traits@D@std@@V?$allocator@D@2@@std@@@1@V?$tuple@$$V@1@@Z 004141d0 f i Source.obj
 0002:00003236       ??6?$basic_ostream@DU?$char_traits@D@std@@@std@@QAEAAV01@P6AAAVios_base@1@AAV21@@Z@Z 00414236 f   msvcprtd:MSVCP140D.dll
 0002:0000323c       ?setf@ios_base@std@@QAEHHH@Z 0041423c f   msvcprtd:MSVCP140D.dll
 0002:00003250       ??$?0$$V@?$_Compressed_pair@V?$allocator@D@std@@V?$_String_val@U?$_Simple_types@D@std@@@2@$00@std@@QAE@U_Zero_then_variadic_args_t@1@@Z 00414250 f i Source.obj
 0002:000032c0       ??$?0$$V@?$_Compressed_pair@V?$allocator@U?$_Tree_node@U?$pair@$$CBV?$basic_string@DU?$char_traits@D@std@@V?$allocator@D@2@@std@@PAVAccount@@@std@@PAX@std@@@std@@V?$_Tree_val@U?$_Tree_simple_types@U?$pair@$$CBV?$basic_string@DU?$char_traits@D@std@@V?$allocator@D@2@@std@@PAVAccount@@@std@@@std@@@2@$00@std@@QAE@U_Zero_then_variadic_args_t@1@@Z 004142c0 f i Source.obj
 0002:00003330       ??$?0AAPAU?$_Tree_node@U?$pair@$$CBV?$basic_string@DU?$char_traits@D@std@@V?$allocator@D@2@@std@@PAVAccount@@@std@@PAX@std@@_N$0A@@?$pair@PAU?$_Tree_node@U?$pair@$$CBV?$basic_string@DU?$char_traits@D@std@@V?$allocator@D@2@@std@@PAVAccount@@@std@@PAX@std@@_N@std@@QAE@AAPAU?$_Tree_node@U?$pair@$$CBV?$basic_string@DU?$char_traits@D@std@@V?$allocator@D@2@@std@@PAVAccount@@@std@@PAX@1@$$QA_N@Z 00414330 f i Source.obj
 0002:000033f0       ??$?0AAPAV_Facet_base@std@@@?$_Compressed_pair@U?$default_delete@V_Facet_base@std@@@std@@PAV_Facet_base@2@$00@std@@QAE@U_Zero_then_variadic_args_t@1@AAPAV_Facet_base@1@@Z 004143f0 f i Source.obj
 0002:00003460       ??$?0ABQAU?$_Tree_node@U?$pair@$$CBV?$basic_string@DU?$char_traits@D@std@@V?$allocator@D@2@@std@@PAVAccount@@@std@@PAX@std@@_N$0A@@?$pair@PAU?$_Tree_node@U?$pair@$$CBV?$basic_string@DU?$char_traits@D@std@@V?$allocator@D@2@@std@@PAVAccount@@@std@@PAX@std@@_N@std@@QAE@ABQAU?$_Tree_node@U?$pair@$$CBV?$basic_string@DU?$char_traits@D@std@@V?$allocator@D@2@@std@@PAVAccount@@@std@@PAX@1@$$QA_N@Z 00414460 f i Source.obj
 0002:00003520       ??$?0ABU?$less@V?$basic_string@DU?$char_traits@D@std@@V?$allocator@D@2@@std@@@std@@U_Zero_then_variadic_args_t@1@@?$_Compressed_pair@U?$less@V?$basic_string@DU?$char_traits@D@std@@V?$allocator@D@2@@std@@@std@@V?$_Compressed_pair@V?$allocator@U?$_Tree_node@U?$pair@$$CBV?$basic_string@DU?$char_traits@D@std@@V?$allocator@D@2@@std@@PAVAccount@@@std@@PAX@std@@@std@@V?$_Tree_val@U?$_Tree_simple_types@U?$pair@$$CBV?$basic_string@DU?$char_traits@D@std@@V?$allocator@D@2@@std@@PAVAccount@@@std@@@std@@@2@$00@2@$00@std@@QAE@U_One_then_variadic_args_t@1@ABU?$less@V?$basic_string@DU?$char_traits@D@std@@V?$allocator@D@2@@std@@@1@$$QAU_Zero_then_variadic_args_t@1@@Z 00414520 f i Source.obj
 0002:000035b0       ??$?0ABUpiecewise_construct_t@std@@V?$tuple@$$QAV?$basic_string@DU?$char_traits@D@std@@V?$allocator@D@2@@std@@@1@V?$tuple@$$V@1@@?$_Tree_temp_node@V?$allocator@U?$_Tree_node@U?$pair@$$CBV?$basic_string@DU?$char_traits@D@std@@V?$allocator@D@2@@std@@PAVAccount@@@std@@PAX@std@@@std@@@std@@QAE@AAV?$allocator@U?$_Tree_node@U?$pair@$$CBV?$basic_string@DU?$char_traits@D@std@@V?$allocator@D@2@@std@@PAVAccount@@@std@@PAX@std@@@1@PAU?$_Tree_node@U?$pair@$$CBV?$basic_string@DU?$char_traits@D@std@@V?$allocator@D@2@@std@@PAVAccount@@@std@@PAX@1@ABUpiecewise_construct_t@1@$$QAV?$tuple@$$QAV?$basic_string@DU?$char_traits@D@std@@V?$allocator@D@2@@std@@@1@$$QAV?$tuple@$$V@1@@Z 004145b0 f i Source.obj
 0002:00003720       ??$?0ABV?$allocator@D@std@@$$V@?$_Compressed_pair@V?$allocator@D@std@@V?$_String_val@U?$_Simple_types@D@std@@@2@$00@std@@QAE@U_One_then_variadic_args_t@1@ABV?$allocator@D@1@@Z 00414720 f i Source.obj
 0002:00003790       ??$?0D@?$allocator@U_Container_proxy@std@@@std@@QAE@ABV?$allocator@D@1@@Z 00414790 f i Source.obj
 0002:00003820       ??$?0PAU?$_Tree_node@U?$pair@$$CBV?$basic_string@DU?$char_traits@D@std@@V?$allocator@D@2@@std@@PAVAccount@@@std@@PAX@std@@_N$0A@@?$pair@PAU?$_Tree_node@U?$pair@$$CBV?$basic_string@DU?$char_traits@D@std@@V?$allocator@D@2@@std@@PAVAccount@@@std@@PAX@std@@_N@std@@QAE@$$QAPAU?$_Tree_node@U?$pair@$$CBV?$basic_string@DU?$char_traits@D@std@@V?$allocator@D@2@@std@@PAVAccount@@@std@@PAX@1@$$QA_N@Z 00414820 f i Source.obj
 0002:000038e0       ??$?0U?$_Tree_node@U?$pair@$$CBV?$basic_string@DU?$char_traits@D@std@@V?$allocator@D@2@@std@@PAVAccount@@@std@@PAX@std@@@?$allocator@U_Container_proxy@std@@@std@@QAE@ABV?$allocator@U?$_Tree_node@U?$pair@$$CBV?$basic_string@DU?$char_traits@D@std@@V?$allocator@D@2@@std@@PAVAccount@@@std@@PAX@std@@@1@@Z 004148e0 f i Source.obj
 0002:00003970       ??$?0U?$default_delete@V_Facet_base@std@@@std@@$0A@@?$unique_ptr@V_Facet_base@std@@U?$default_delete@V_Facet_base@std@@@2@@std@@QAE@PAV_Facet_base@1@@Z 00414970 f i Source.obj
 0002:00003a20       ??$?0U?$pair@$$CBV?$basic_string@DU?$char_traits@D@std@@V?$allocator@D@2@@std@@PAVAccount@@@std@@@?$_Tree_temp_node@V?$allocator@U?$_Tree_node@U?$pair@$$CBV?$basic_string@DU?$char_traits@D@std@@V?$allocator@D@2@@std@@PAVAccount@@@std@@PAX@std@@@std@@@std@@QAE@AAV?$allocator@U?$_Tree_node@U?$pair@$$CBV?$basic_string@DU?$char_traits@D@std@@V?$allocator@D@2@@std@@PAVAccount@@@std@@PAX@std@@@1@PAU?$_Tree_node@U?$pair@$$CBV?$basic_string@DU?$char_traits@D@std@@V?$allocator@D@2@@std@@PAVAccount@@@std@@PAX@1@$$QAU?$pair@$$CBV?$basic_string@DU?$char_traits@D@std@@V?$allocator@D@2@@std@@PAVAccount@@@1@@Z 00414a20 f i Source.obj
 0002:00003b70       ??$?0U_Exact_args_t@std@@$0A@@?$tuple@$$V@std@@QAE@U_Exact_args_t@1@@Z 00414b70 f i Source.obj
 0002:00003c00       ??$?0U_Exact_args_t@std@@V?$basic_string@DU?$char_traits@D@std@@V?$allocator@D@2@@1@$$V$0A@@?$tuple@$$QAV?$basic_string@DU?$char_traits@D@std@@V?$allocator@D@2@@std@@@std@@QAE@U_Exact_args_t@1@$$QAV?$basic_string@DU?$char_traits@D@std@@V?$allocator@D@2@@1@@Z 00414c00 f i Source.obj
 0002:00003c90       ??$?0V?$_Tree_iterator@V?$_Tree_val@U?$_Tree_simple_types@U?$pair@$$CBV?$basic_string@DU?$char_traits@D@std@@V?$allocator@D@2@@std@@PAVAccount@@@std@@@std@@@std@@@std@@AB_N$0A@@?$pair@V?$_Tree_iterator@V?$_Tree_val@U?$_Tree_simple_types@U?$pair@$$CBV?$basic_string@DU?$char_traits@D@std@@V?$allocator@D@2@@std@@PAVAccount@@@std@@@std@@@std@@@std@@_N@std@@QAE@$$QAV?$_Tree_iterator@V?$_Tree_val@U?$_Tree_simple_types@U?$pair@$$CBV?$basic_string@DU?$char_traits@D@std@@V?$allocator@D@2@@std@@PAVAccount@@@std@@@std@@@std@@@1@AB_N@Z 00414c90 f i Source.obj
 0002:00003d50       ??$?0V?$allocator@D@std@@$$V@?$_Compressed_pair@V?$allocator@D@std@@V?$_String_val@U?$_Simple_types@D@std@@@2@$00@std@@QAE@U_One_then_variadic_args_t@1@$$QAV?$allocator@D@1@@Z 00414d50 f i Source.obj
 0002:00003dc0       ??$?0V?$basic_string@DU?$char_traits@D@std@@V?$allocator@D@2@@std@@$$V$0A@@?$tuple@$$QAV?$basic_string@DU?$char_traits@D@std@@V?$allocator@D@2@@std@@@std@@QAE@$$QAV?$basic_string@DU?$char_traits@D@std@@V?$allocator@D@2@@1@@Z 00414dc0 f i Source.obj
 0002:00003e80       ??$?0V?$basic_string@DU?$char_traits@D@std@@V?$allocator@D@2@@std@@@?$_Tuple_val@$$QAV?$basic_string@DU?$char_traits@D@std@@V?$allocator@D@2@@std@@@std@@QAE@$$QAV?$basic_string@DU?$char_traits@D@std@@V?$allocator@D@2@@1@@Z 00414e80 f i Source.obj
 0002:00003ef0       ??$?0V?$basic_string@DU?$char_traits@D@std@@V?$allocator@D@2@@std@@AAPAVAccount@@$0A@@?$pair@$$CBV?$basic_string@DU?$char_traits@D@std@@V?$allocator@D@2@@std@@PAVAccount@@@std@@QAE@$$QAV?$basic_string@DU?$char_traits@D@std@@V?$allocator@D@2@@1@AAPAVAccount@@@Z 00414ef0 f i Source.obj
 0002:00003fb0       ??$?0V?$tuple@$$QAV?$basic_string@DU?$char_traits@D@std@@V?$allocator@D@2@@std@@@std@@V?$tuple@$$V@1@$0A@$$Z$S@?$pair@$$CBV?$basic_string@DU?$char_traits@D@std@@V?$allocator@D@2@@std@@PAVAccount@@@std@@QAE@AAV?$tuple@$$QAV?$basic_string@DU?$char_traits@D@std@@V?$allocator@D@2@@std@@@1@AAV?$tuple@$$V@1@U?$integer_sequence@I$0A@@1@U?$integer_sequence@I$S@1@@Z 00414fb0 f i Source.obj
 0002:00004040       ??$?6DU?$char_traits@D@std@@V?$allocator@D@1@@std@@YAAAV?$basic_ostream@DU?$char_traits@D@std@@@0@AAV10@ABV?$basic_string@DU?$char_traits@D@std@@V?$allocator@D@2@@0@@Z 00415040 f i Source.obj
 0002:000040b0       ??$?6U?$char_traits@D@std@@@std@@YAAAV?$basic_ostream@DU?$char_traits@D@std@@@0@AAV10@D@Z 004150b0 f i Source.obj
 0002:00004520       ?front@?$basic_string@DU?$char_traits@D@std@@V?$allocator@D@2@@std@@QAEAADXZ 00415520 f i Source.obj
 0002:00004640       ??$?6U?$char_traits@D@std@@@std@@YAAAV?$basic_ostream@DU?$char_traits@D@std@@@0@AAV10@PBD@Z 00415640 f i Source.obj
 0002:00004af0       ?get_allocator@?$basic_string@DU?$char_traits@D@std@@V?$allocator@D@2@@std@@QBE?AV?$allocator@D@2@XZ 00415af0 f i Source.obj
 0002:00004b70       ?monthly_update@BonusAcc@@UAEXXZ 00415b70 f i Source.obj
 0002:00004c20       ??$?8DU?$char_traits@D@std@@V?$allocator@D@1@@std@@YA_NABV?$basic_string@DU?$char_traits@D@std@@V?$allocator@D@2@@0@QBD@Z 00415c20 f i Source.obj
 0002:00004c80       ??$?MDU?$char_traits@D@std@@V?$allocator@D@1@@std@@YA_NABV?$basic_string@DU?$char_traits@D@std@@V?$allocator@D@2@@0@0@Z 00415c80 f i Source.obj
 0002:00004d40       ??$_Alloc_proxy@V?$allocator@U_Container_proxy@std@@@std@@@_Container_base12@std@@QAEX$$QAV?$allocator@U_Container_proxy@std@@@1@@Z 00415d40 f i Source.obj
 0002:00004df0       ??$_Allocate@$07U_Default_allocate_traits@std@@$0A@@std@@YAPAXI@Z 00415df0 f i Source.obj
 0002:00004e80       ??$_Allocate_manually_vector_aligned@U_Default_allocate_traits@std@@@std@@YAPAXI@Z 00415e80 f i Source.obj
 0002:00004fc0       ??$_Buyheadnode@V?$allocator@U?$_Tree_node@U?$pair@$$CBV?$basic_string@DU?$char_traits@D@std@@V?$allocator@D@2@@std@@PAVAccount@@@std@@PAX@std@@@std@@@?$_Tree_node@U?$pair@$$CBV?$basic_string@DU?$char_traits@D@std@@V?$allocator@D@2@@std@@PAVAccount@@@std@@PAX@std@@SAPAU01@AAV?$allocator@U?$_Tree_node@U?$pair@$$CBV?$basic_string@DU?$char_traits@D@std@@V?$allocator@D@2@@std@@PAVAccount@@@std@@PAX@std@@@1@@Z 00415fc0 f i Source.obj
 0002:000050d0       ??$_Construct_in_place@PADABQAD@std@@YAXAAPADABQAD@Z 004160d0 f i Source.obj
 0002:00005190       ??$_Construct_in_place@PAU?$_Tree_node@U?$pair@$$CBV?$basic_string@DU?$char_traits@D@std@@V?$allocator@D@2@@std@@PAVAccount@@@std@@PAX@std@@AAPAU12@@std@@YAXAAPAU?$_Tree_node@U?$pair@$$CBV?$basic_string@DU?$char_traits@D@std@@V?$allocator@D@2@@std@@PAVAccount@@@std@@PAX@0@0@Z 00416190 f i Source.obj
 0002:00005250       ??$_Construct_in_place@PAU?$_Tree_node@U?$pair@$$CBV?$basic_string@DU?$char_traits@D@std@@V?$allocator@D@2@@std@@PAVAccount@@@std@@PAX@std@@ABQAU12@@std@@YAXAAPAU?$_Tree_node@U?$pair@$$CBV?$basic_string@DU?$char_traits@D@std@@V?$allocator@D@2@@std@@PAVAccount@@@std@@PAX@0@ABQAU10@@Z 00416250 f i Source.obj
 0002:00005310       ??$_Construct_in_place@U_Container_proxy@std@@PAU_Container_base12@2@@std@@YAXAAU_Container_proxy@0@$$QAPAU_Container_base12@0@@Z 00416310 f i Source.obj
 0002:000053e0       ??$_Deallocate@$07$0A@@std@@YAXPAXI@Z 004163e0 f i Source.obj
 0002:000054a0       ??$_Deallocate_plain@V?$allocator@U_Container_proxy@std@@@std@@@std@@YAXAAV?$allocator@U_Container_proxy@std@@@0@QAU_Container_proxy@0@@Z 004164a0 f i Source.obj
 0002:00005540       ??$_Debug_lt_pred@ABU?$less@V?$basic_string@DU?$char_traits@D@std@@V?$allocator@D@2@@std@@@std@@ABV?$basic_string@DU?$char_traits@D@std@@V?$allocator@D@2@@2@ABV32@$0A@@std@@YA_NABU?$less@V?$basic_string@DU?$char_traits@D@std@@V?$allocator@D@2@@std@@@0@ABV?$basic_string@DU?$char_traits@D@std@@V?$allocator@D@2@@0@1@Z 00416540 f i Source.obj
 0002:00005650       ??$_Delete_plain_internal@V?$allocator@U_Container_proxy@std@@@std@@@std@@YAXAAV?$allocator@U_Container_proxy@std@@@0@QAU_Container_proxy@0@@Z 00416650 f i Source.obj
 0002:000056f0       ??$_Destroy_in_place@PAD@std@@YAXAAPAD@Z 004166f0 f i Source.obj
 0002:00005770       ??$_Destroy_in_place@PAU?$_Tree_node@U?$pair@$$CBV?$basic_string@DU?$char_traits@D@std@@V?$allocator@D@2@@std@@PAVAccount@@@std@@PAX@std@@@std@@YAXAAPAU?$_Tree_node@U?$pair@$$CBV?$basic_string@DU?$char_traits@D@std@@V?$allocator@D@2@@std@@PAVAccount@@@std@@PAX@0@@Z 00416770 f i Source.obj
 0002:000057f0       ??$_Emplace@U?$pair@$$CBV?$basic_string@DU?$char_traits@D@std@@V?$allocator@D@2@@std@@PAVAccount@@@std@@@?$_Tree@V?$_Tmap_traits@V?$basic_string@DU?$char_traits@D@std@@V?$allocator@D@2@@std@@PAVAccount@@U?$less@V?$basic_string@DU?$char_traits@D@std@@V?$allocator@D@2@@std@@@2@V?$allocator@U?$pair@$$CBV?$basic_string@DU?$char_traits@D@std@@V?$allocator@D@2@@std@@PAVAccount@@@std@@@2@$0A@@std@@@std@@IAE?AU?$pair@PAU?$_Tree_node@U?$pair@$$CBV?$basic_string@DU?$char_traits@D@std@@V?$allocator@D@2@@std@@PAVAccount@@@std@@PAX@std@@_N@1@$$QAU?$pair@$$CBV?$basic_string@DU?$char_traits@D@std@@V?$allocator@D@2@@std@@PAVAccount@@@1@@Z 004167f0 f i Source.obj
 0002:000059e0       ??$_Erase_head@V?$allocator@U?$_Tree_node@U?$pair@$$CBV?$basic_string@DU?$char_traits@D@std@@V?$allocator@D@2@@std@@PAVAccount@@@std@@PAX@std@@@std@@@?$_Tree_val@U?$_Tree_simple_types@U?$pair@$$CBV?$basic_string@DU?$char_traits@D@std@@V?$allocator@D@2@@std@@PAVAccount@@@std@@@std@@@std@@QAEXAAV?$allocator@U?$_Tree_node@U?$pair@$$CBV?$basic_string@DU?$char_traits@D@std@@V?$allocator@D@2@@std@@PAVAccount@@@std@@PAX@std@@@1@@Z 004169e0 f i Source.obj
 0002:00005ab0       ??$_Erase_tree@V?$allocator@U?$_Tree_node@U?$pair@$$CBV?$basic_string@DU?$char_traits@D@std@@V?$allocator@D@2@@std@@PAVAccount@@@std@@PAX@std@@@std@@@?$_Tree_val@U?$_Tree_simple_types@U?$pair@$$CBV?$basic_string@DU?$char_traits@D@std@@V?$allocator@D@2@@std@@PAVAccount@@@std@@@std@@@std@@QAEXAAV?$allocator@U?$_Tree_node@U?$pair@$$CBV?$basic_string@DU?$char_traits@D@std@@V?$allocator@D@2@@std@@PAVAccount@@@std@@PAX@std@@@1@PAU?$_Tree_node@U?$pair@$$CBV?$basic_string@DU?$char_traits@D@std@@V?$allocator@D@2@@std@@PAVAccount@@@std@@PAX@1@@Z 00416ab0 f i Source.obj
 0002:00005b90       ??$_Fgetc@D@std@@YA_NAADPAU_iobuf@@@Z 00416b90 f i Source.obj
 0002:00005c20       ??$_Find@V?$basic_string@DU?$char_traits@D@std@@V?$allocator@D@2@@std@@@?$_Tree@V?$_Tmap_traits@V?$basic_string@DU?$char_traits@D@std@@V?$allocator@D@2@@std@@PAVAccount@@U?$less@V?$basic_string@DU?$char_traits@D@std@@V?$allocator@D@2@@std@@@2@V?$allocator@U?$pair@$$CBV?$basic_string@DU?$char_traits@D@std@@V?$allocator@D@2@@std@@PAVAccount@@@std@@@2@$0A@@std@@@std@@ABEPAU?$_Tree_node@U?$pair@$$CBV?$basic_string@DU?$char_traits@D@std@@V?$allocator@D@2@@std@@PAVAccount@@@std@@PAX@1@ABV?$basic_string@DU?$char_traits@D@std@@V?$allocator@D@2@@1@@Z 00416c20 f i Source.obj
 0002:00005d10       ??$_Find_lower_bound@V?$basic_string@DU?$char_traits@D@std@@V?$allocator@D@2@@std@@@?$_Tree@V?$_Tmap_traits@V?$basic_string@DU?$char_traits@D@std@@V?$allocator@D@2@@std@@PAVAccount@@U?$less@V?$basic_string@DU?$char_traits@D@std@@V?$allocator@D@2@@std@@@2@V?$allocator@U?$pair@$$CBV?$basic_string@DU?$char_traits@D@std@@V?$allocator@D@2@@std@@PAVAccount@@@std@@@2@$0A@@std@@@std@@IBE?AU?$_Tree_find_result@PAU?$_Tree_node@U?$pair@$$CBV?$basic_string@DU?$char_traits@D@std@@V?$allocator@D@2@@std@@PAVAccount@@@std@@PAX@std@@@1@ABV?$basic_string@DU?$char_traits@D@std@@V?$allocator@D@2@@1@@Z 00416d10 f i Source.obj
 0002:00005e90       ??$_Fputc@D@std@@YA_NDPAU_iobuf@@@Z 00416e90 f i Source.obj
 0002:00005f30       ??$_Freenode0@V?$allocator@U?$_Tree_node@U?$pair@$$CBV?$basic_string@DU?$char_traits@D@std@@V?$allocator@D@2@@std@@PAVAccount@@@std@@PAX@std@@@std@@@?$_Tree_node@U?$pair@$$CBV?$basic_string@DU?$char_traits@D@std@@V?$allocator@D@2@@std@@PAVAccount@@@std@@PAX@std@@SAXAAV?$allocator@U?$_Tree_node@U?$pair@$$CBV?$basic_string@DU?$char_traits@D@std@@V?$allocator@D@2@@std@@PAVAccount@@@std@@PAX@std@@@1@PAU01@@Z 00416f30 f i Source.obj
 0002:00006000       ??$_Freenode@V?$allocator@U?$_Tree_node@U?$pair@$$CBV?$basic_string@DU?$char_traits@D@std@@V?$allocator@D@2@@std@@PAVAccount@@@std@@PAX@std@@@std@@@?$_Tree_node@U?$pair@$$CBV?$basic_string@DU?$char_traits@D@std@@V?$allocator@D@2@@std@@PAVAccount@@@std@@PAX@std@@SAXAAV?$allocator@U?$_Tree_node@U?$pair@$$CBV?$basic_string@DU?$char_traits@D@std@@V?$allocator@D@2@@std@@PAVAccount@@@std@@PAX@std@@@1@PAU01@@Z 00417000 f i Source.obj
 0002:000060c0       ??$_Get_size_of_n@$00@std@@YAII@Z 004170c0 f i Source.obj
 0002:00006120       ??$_Get_size_of_n@$07@std@@YAII@Z 00417120 f i Source.obj
 0002:000061a0       ??$_Get_size_of_n@$0DA@@std@@YAII@Z 004171a0 f i Source.obj
 0002:00006210       ??$_Insert_string@DU?$char_traits@D@std@@I@std@@YAAAV?$basic_ostream@DU?$char_traits@D@std@@@0@AAV10@QBDI@Z 00417210 f i Source.obj
 0002:00006660       ?max_size@?$basic_string@DU?$char_traits@D@std@@V?$allocator@D@2@@std@@QBEIXZ 00417660 f i Source.obj
 0002:00006770       ??$_Kfn@$$CBV?$basic_string@DU?$char_traits@D@std@@V?$allocator@D@2@@std@@PAVAccount@@@?$_Tmap_traits@V?$basic_string@DU?$char_traits@D@std@@V?$allocator@D@2@@std@@PAVAccount@@U?$less@V?$basic_string@DU?$char_traits@D@std@@V?$allocator@D@2@@std@@@2@V?$allocator@U?$pair@$$CBV?$basic_string@DU?$char_traits@D@std@@V?$allocator@D@2@@std@@PAVAccount@@@std@@@2@$0A@@std@@SAABV?$basic_string@DU?$char_traits@D@std@@V?$allocator@D@2@@1@ABU?$pair@$$CBV?$basic_string@DU?$char_traits@D@std@@V?$allocator@D@2@@std@@PAVAccount@@@1@@Z 00417770 f i Source.obj
 0002:000067c0       ??$_Lower_bound_duplicate@V?$basic_string@DU?$char_traits@D@std@@V?$allocator@D@2@@std@@@?$_Tree@V?$_Tmap_traits@V?$basic_string@DU?$char_traits@D@std@@V?$allocator@D@2@@std@@PAVAccount@@U?$less@V?$basic_string@DU?$char_traits@D@std@@V?$allocator@D@2@@std@@@2@V?$allocator@U?$pair@$$CBV?$basic_string@DU?$char_traits@D@std@@V?$allocator@D@2@@std@@PAVAccount@@@std@@@2@$0A@@std@@@std@@IBE_NQAU?$_Tree_node@U?$pair@$$CBV?$basic_string@DU?$char_traits@D@std@@V?$allocator@D@2@@std@@PAVAccount@@@std@@PAX@1@ABV?$basic_string@DU?$char_traits@D@std@@V?$allocator@D@2@@1@@Z 004177c0 f i Source.obj
 0002:00006880       ??$_Max_value@I@std@@YAABIABI0@Z 00417880 f i Source.obj
 0002:00006940       ??$_Min_value@I@std@@YAABIABI0@Z 00417940 f i Source.obj
 0002:00006a00       ??$_Pocca@V?$allocator@D@std@@@std@@YAXAAV?$allocator@D@0@ABV10@@Z 00417a00 f i Source.obj
 0002:00006a80       ??$_Reallocate_for@V<lambda_9366063389c5f42a00a5088cf24e69de>@@PBD@?$basic_string@DU?$char_traits@D@std@@V?$allocator@D@2@@std@@AAEAAV01@IV<lambda_9366063389c5f42a00a5088cf24e69de>@@PBD@Z 00417a80 f i Source.obj
 0002:00006c20       ??$_Reallocate_grow_by@V<lambda_15711c68e099a15a58f4d77303cb286d>@@D@?$basic_string@DU?$char_traits@D@std@@V?$allocator@D@2@@std@@AAEAAV01@IV<lambda_15711c68e099a15a58f4d77303cb286d>@@D@Z 00417c20 f i Source.obj
 0002:00006e30       ??$_Traits_compare@U?$char_traits@D@std@@@std@@YAHQBDI0I@Z 00417e30 f i Source.obj
 0002:00006f20       ??$_Traits_equal@U?$char_traits@D@std@@@std@@YA_NQBDI0I@Z 00417f20 f i Source.obj
 0002:00006ff0       ??$_Try_emplace@V?$basic_string@DU?$char_traits@D@std@@V?$allocator@D@2@@std@@$$V@?$map@V?$basic_string@DU?$char_traits@D@std@@V?$allocator@D@2@@std@@PAVAccount@@U?$less@V?$basic_string@DU?$char_traits@D@std@@V?$allocator@D@2@@std@@@2@V?$allocator@U?$pair@$$CBV?$basic_string@DU?$char_traits@D@std@@V?$allocator@D@2@@std@@PAVAccount@@@std@@@2@@std@@AAE?AU?$pair@PAU?$_Tree_node@U?$pair@$$CBV?$basic_string@DU?$char_traits@D@std@@V?$allocator@D@2@@std@@PAVAccount@@@std@@PAX@std@@_N@1@$$QAV?$basic_string@DU?$char_traits@D@std@@V?$allocator@D@2@@1@@Z 00417ff0 f i Source.obj
 0002:000071e0       ??$_Unfancy@D@std@@YAPADPAD@Z 004181e0 f i Source.obj
 0002:00007230       ??$_Unfancy@U_Container_proxy@std@@@std@@YAPAU_Container_proxy@0@PAU10@@Z 00418230 f i Source.obj
 0002:00007280       ??$_Ungetc@D@std@@YA_NABDPAU_iobuf@@@Z 00418280 f i Source.obj
 0002:00007320       ??$addressof@$$CBV?$_String_val@U?$_Simple_types@D@std@@@std@@@std@@YAPBV?$_String_val@U?$_Simple_types@D@std@@@0@ABV10@@Z 00418320 f i Source.obj
 0002:000073b0       ??$addressof@$$CBV?$_Tree_val@U?$_Tree_simple_types@U?$pair@$$CBV?$basic_string@DU?$char_traits@D@std@@V?$allocator@D@2@@std@@PAVAccount@@@std@@@std@@@std@@@std@@YAPBV?$_Tree_val@U?$_Tree_simple_types@U?$pair@$$CBV?$basic_string@DU?$char_traits@D@std@@V?$allocator@D@2@@std@@PAVAccount@@@std@@@std@@@0@ABV10@@Z 004183b0 f i Source.obj
 0002:00007440       ??$addressof@$$CBV?$basic_string@DU?$char_traits@D@std@@V?$allocator@D@2@@std@@@std@@YAPBV?$basic_string@DU?$char_traits@D@std@@V?$allocator@D@2@@0@ABV10@@Z 00418440 f i Source.obj
 0002:000074d0       ??$addressof@$$CBV?$codecvt@DDU_Mbstatet@@@std@@@std@@YAPBV?$codecvt@DDU_Mbstatet@@@0@ABV10@@Z 004184d0 f i Source.obj
 0002:00007560       ??$addressof@PAD@std@@YAPAPADAAPAD@Z 00418560 f i Source.obj
 0002:000075f0       ??$addressof@PAU?$_Tree_node@U?$pair@$$CBV?$basic_string@DU?$char_traits@D@std@@V?$allocator@D@2@@std@@PAVAccount@@@std@@PAX@std@@@std@@YAPAPAU?$_Tree_node@U?$pair@$$CBV?$basic_string@DU?$char_traits@D@std@@V?$allocator@D@2@@std@@PAVAccount@@@std@@PAX@0@AAPAU10@@Z 004185f0 f i Source.obj
 0002:00007680       ??$addressof@U?$pair@$$CBV?$basic_string@DU?$char_traits@D@std@@V?$allocator@D@2@@std@@PAVAccount@@@std@@@std@@YAPAU?$pair@$$CBV?$basic_string@DU?$char_traits@D@std@@V?$allocator@D@2@@std@@PAVAccount@@@0@AAU10@@Z 00418680 f i Source.obj
 0002:00007710       ??$addressof@U_Container_base12@std@@@std@@YAPAU_Container_base12@0@AAU10@@Z 00418710 f i Source.obj
 0002:000077a0       ??$addressof@U_Container_proxy@std@@@std@@YAPAU_Container_proxy@0@AAU10@@Z 004187a0 f i Source.obj
 0002:00007830       ??$addressof@V?$_String_val@U?$_Simple_types@D@std@@@std@@@std@@YAPAV?$_String_val@U?$_Simple_types@D@std@@@0@AAV10@@Z 00418830 f i Source.obj
 0002:000078c0       ??$addressof@V?$_Tree_val@U?$_Tree_simple_types@U?$pair@$$CBV?$basic_string@DU?$char_traits@D@std@@V?$allocator@D@2@@std@@PAVAccount@@@std@@@std@@@std@@@std@@YAPAV?$_Tree_val@U?$_Tree_simple_types@U?$pair@$$CBV?$basic_string@DU?$char_traits@D@std@@V?$allocator@D@2@@std@@PAVAccount@@@std@@@std@@@0@AAV10@@Z 004188c0 f i Source.obj
 0002:00007950       ??$addressof@V?$basic_filebuf@DU?$char_traits@D@std@@@std@@@std@@YAPAV?$basic_filebuf@DU?$char_traits@D@std@@@0@AAV10@@Z 00418950 f i Source.obj
 0002:000079e0       ??$construct@U?$pair@$$CBV?$basic_string@DU?$char_traits@D@std@@V?$allocator@D@2@@std@@PAVAccount@@@std@@ABUpiecewise_construct_t@2@V?$tuple@$$QAV?$basic_string@DU?$char_traits@D@std@@V?$allocator@D@2@@std@@@2@V?$tuple@$$V@2@@?$_Default_allocator_traits@V?$allocator@U?$_Tree_node@U?$pair@$$CBV?$basic_string@DU?$char_traits@D@std@@V?$allocator@D@2@@std@@PAVAccount@@@std@@PAX@std@@@std@@@std@@SAXAAV?$allocator@U?$_Tree_node@U?$pair@$$CBV?$basic_string@DU?$char_traits@D@std@@V?$allocator@D@2@@std@@PAVAccount@@@std@@PAX@std@@@1@QAU?$pair@$$CBV?$basic_string@DU?$char_traits@D@std@@V?$allocator@D@2@@std@@PAVAccount@@@1@ABUpiecewise_construct_t@1@$$QAV?$tuple@$$QAV?$basic_string@DU?$char_traits@D@std@@V?$allocator@D@2@@std@@@1@$$QAV?$tuple@$$V@1@@Z 004189e0 f i Source.obj
 0002:00007ab0       ??$construct@U?$pair@$$CBV?$basic_string@DU?$char_traits@D@std@@V?$allocator@D@2@@std@@PAVAccount@@@std@@U12@@?$_Default_allocator_traits@V?$allocator@U?$_Tree_node@U?$pair@$$CBV?$basic_string@DU?$char_traits@D@std@@V?$allocator@D@2@@std@@PAVAccount@@@std@@PAX@std@@@std@@@std@@SAXAAV?$allocator@U?$_Tree_node@U?$pair@$$CBV?$basic_string@DU?$char_traits@D@std@@V?$allocator@D@2@@std@@PAVAccount@@@std@@PAX@std@@@1@QAU?$pair@$$CBV?$basic_string@DU?$char_traits@D@std@@V?$allocator@D@2@@std@@PAVAccount@@@1@$$QAU31@@Z 00418ab0 f i Source.obj
 0002:00007b40       ??$destroy@U?$pair@$$CBV?$basic_string@DU?$char_traits@D@std@@V?$allocator@D@2@@std@@PAVAccount@@@std@@@?$_Default_allocator_traits@V?$allocator@U?$_Tree_node@U?$pair@$$CBV?$basic_string@DU?$char_traits@D@std@@V?$allocator@D@2@@std@@PAVAccount@@@std@@PAX@std@@@std@@@std@@SAXAAV?$allocator@U?$_Tree_node@U?$pair@$$CBV?$basic_string@DU?$char_traits@D@std@@V?$allocator@D@2@@std@@PAVAccount@@@std@@PAX@std@@@1@QAU?$pair@$$CBV?$basic_string@DU?$char_traits@D@std@@V?$allocator@D@2@@std@@PAVAccount@@@1@@Z 00418b40 f i Source.obj
 0002:00007ba0       ??$exchange@PAU?$_Tree_node@U?$pair@$$CBV?$basic_string@DU?$char_traits@D@std@@V?$allocator@D@2@@std@@PAVAccount@@@std@@PAX@std@@$$T@std@@YAPAU?$_Tree_node@U?$pair@$$CBV?$basic_string@DU?$char_traits@D@std@@V?$allocator@D@2@@std@@PAVAccount@@@std@@PAX@0@AAPAU10@$$QA$$T@Z 00418ba0 f i Source.obj
 0002:00007c10       ??$exchange@PAU?$_Tree_node@U?$pair@$$CBV?$basic_string@DU?$char_traits@D@std@@V?$allocator@D@2@@std@@PAVAccount@@@std@@PAX@std@@AAPAU12@@std@@YAPAU?$_Tree_node@U?$pair@$$CBV?$basic_string@DU?$char_traits@D@std@@V?$allocator@D@2@@std@@PAVAccount@@@std@@PAX@0@AAPAU10@0@Z 00418c10 f i Source.obj
 0002:00007c80       ??$exchange@PAV_Facet_base@std@@PAV12@@std@@YAPAV_Facet_base@0@AAPAV10@$$QAPAV10@@Z 00418c80 f i Source.obj
 0002:00007cf0       ??$forward@AAPAU?$_Tree_node@U?$pair@$$CBV?$basic_string@DU?$char_traits@D@std@@V?$allocator@D@2@@std@@PAVAccount@@@std@@PAX@std@@@std@@YAAAPAU?$_Tree_node@U?$pair@$$CBV?$basic_string@DU?$char_traits@D@std@@V?$allocator@D@2@@std@@PAVAccount@@@std@@PAX@0@AAPAU10@@Z 00418cf0 f i Source.obj
 0002:00007d80       ??$forward@AAPAVAccount@@@std@@YAAAPAVAccount@@AAPAV1@@Z 00418d80 f i Source.obj
 0002:00007e10       ??$forward@AAPAV_Facet_base@std@@@std@@YAAAPAV_Facet_base@0@AAPAV10@@Z 00418e10 f i Source.obj
 0002:00007ea0       ??$forward@ABQAD@std@@YAABQADABQAD@Z 00418ea0 f i Source.obj
 0002:00007f30       ??$forward@ABQAU?$_Tree_node@U?$pair@$$CBV?$basic_string@DU?$char_traits@D@std@@V?$allocator@D@2@@std@@PAVAccount@@@std@@PAX@std@@@std@@YAABQAU?$_Tree_node@U?$pair@$$CBV?$basic_string@DU?$char_traits@D@std@@V?$allocator@D@2@@std@@PAVAccount@@@std@@PAX@0@ABQAU10@@Z 00418f30 f i Source.obj
 0002:00007fc0       ??$forward@ABU?$less@V?$basic_string@DU?$char_traits@D@std@@V?$allocator@D@2@@std@@@std@@@std@@YAABU?$less@V?$basic_string@DU?$char_traits@D@std@@V?$allocator@D@2@@std@@@0@ABU10@@Z 00418fc0 f i Source.obj
 0002:00008050       ??$forward@ABUpiecewise_construct_t@std@@@std@@YAABUpiecewise_construct_t@0@ABU10@@Z 00419050 f i Source.obj
 0002:000080e0       ??$forward@ABV?$allocator@D@std@@@std@@YAABV?$allocator@D@0@ABV10@@Z 004190e0 f i Source.obj
 0002:00008170       ??$forward@AB_N@std@@YAAB_NAB_N@Z 00419170 f i Source.obj
 0002:00008200       ??$forward@PAU?$_Tree_node@U?$pair@$$CBV?$basic_string@DU?$char_traits@D@std@@V?$allocator@D@2@@std@@PAVAccount@@@std@@PAX@std@@@std@@YA$$QAPAU?$_Tree_node@U?$pair@$$CBV?$basic_string@DU?$char_traits@D@std@@V?$allocator@D@2@@std@@PAVAccount@@@std@@PAX@0@AAPAU10@@Z 00419200 f i Source.obj
 0002:00008290       ??$forward@PAU_Container_base12@std@@@std@@YA$$QAPAU_Container_base12@0@AAPAU10@@Z 00419290 f i Source.obj
 0002:00008320       ??$forward@U?$pair@$$CBV?$basic_string@DU?$char_traits@D@std@@V?$allocator@D@2@@std@@PAVAccount@@@std@@@std@@YA$$QAU?$pair@$$CBV?$basic_string@DU?$char_traits@D@std@@V?$allocator@D@2@@std@@PAVAccount@@@0@AAU10@@Z 00419320 f i Source.obj
 0002:000083b0       ??$forward@U_Zero_then_variadic_args_t@std@@@std@@YA$$QAU_Zero_then_variadic_args_t@0@AAU10@@Z 004193b0 f i Source.obj
 0002:00008440       ??$forward@V?$_Tree_iterator@V?$_Tree_val@U?$_Tree_simple_types@U?$pair@$$CBV?$basic_string@DU?$char_traits@D@std@@V?$allocator@D@2@@std@@PAVAccount@@@std@@@std@@@std@@@std@@@std@@YA$$QAV?$_Tree_iterator@V?$_Tree_val@U?$_Tree_simple_types@U?$pair@$$CBV?$basic_string@DU?$char_traits@D@std@@V?$allocator@D@2@@std@@PAVAccount@@@std@@@std@@@std@@@0@AAV10@@Z 00419440 f i Source.obj
 0002:000084d0       ??$forward@V?$allocator@D@std@@@std@@YA$$QAV?$allocator@D@0@AAV10@@Z 004194d0 f i Source.obj
 0002:00008560       ??$forward@V?$basic_string@DU?$char_traits@D@std@@V?$allocator@D@2@@std@@@std@@YA$$QAV?$basic_string@DU?$char_traits@D@std@@V?$allocator@D@2@@0@AAV10@@Z 00419560 f i Source.obj
 0002:000085f0       ??$forward@V?$tuple@$$QAV?$basic_string@DU?$char_traits@D@std@@V?$allocator@D@2@@std@@@std@@@std@@YA$$QAV?$tuple@$$QAV?$basic_string@DU?$char_traits@D@std@@V?$allocator@D@2@@std@@@0@AAV10@@Z 004195f0 f i Source.obj
 0002:00008680       ??$forward@V?$tuple@$$V@std@@@std@@YA$$QAV?$tuple@$$V@0@AAV10@@Z 00419680 f i Source.obj
 0002:00008710       ??$forward@_N@std@@YA$$QA_NAA_N@Z 00419710 f i Source.obj
 0002:000087a0       ??$forward_as_tuple@$$V@std@@YA?AV?$tuple@$$V@0@XZ 004197a0 f i Source.obj
 0002:00008830       ??$forward_as_tuple@V?$basic_string@DU?$char_traits@D@std@@V?$allocator@D@2@@std@@@std@@YA?AV?$tuple@$$QAV?$basic_string@DU?$char_traits@D@std@@V?$allocator@D@2@@std@@@0@$$QAV?$basic_string@DU?$char_traits@D@std@@V?$allocator@D@2@@0@@Z 00419830 f i Source.obj
 0002:000088d0       ??$get@$0A@$$QAV?$basic_string@DU?$char_traits@D@std@@V?$allocator@D@2@@std@@@std@@YA$$QAV?$basic_string@DU?$char_traits@D@std@@V?$allocator@D@2@@0@$$QAV?$tuple@$$QAV?$basic_string@DU?$char_traits@D@std@@V?$allocator@D@2@@std@@@0@@Z 004198d0 f i Source.obj
 0002:00008960       ??$getline@DU?$char_traits@D@std@@V?$allocator@D@2@@std@@YAAAV?$basic_istream@DU?$char_traits@D@std@@@0@$$QAV10@AAV?$basic_string@DU?$char_traits@D@std@@V?$allocator@D@2@@0@D@Z 00419960 f i Source.obj
 0002:00008c70       ?setbuf@?$basic_filebuf@DU?$char_traits@D@std@@@std@@MAEPAV?$basic_streambuf@DU?$char_traits@D@std@@@2@PAD_J@Z 00419c70 f i Source.obj
 0002:00008d30       ??$getline@DU?$char_traits@D@std@@V?$allocator@D@2@@std@@YAAAV?$basic_istream@DU?$char_traits@D@std@@@0@AAV10@AAV?$basic_string@DU?$char_traits@D@std@@V?$allocator@D@2@@0@D@Z 00419d30 f i Source.obj
 0002:00008da0       ??$insert@$0A@$0A@@?$_Tree@V?$_Tmap_traits@V?$basic_string@DU?$char_traits@D@std@@V?$allocator@D@2@@std@@PAVAccount@@U?$less@V?$basic_string@DU?$char_traits@D@std@@V?$allocator@D@2@@std@@@2@V?$allocator@U?$pair@$$CBV?$basic_string@DU?$char_traits@D@std@@V?$allocator@D@2@@std@@PAVAccount@@@std@@@2@$0A@@std@@@std@@QAE?AU?$pair@V?$_Tree_iterator@V?$_Tree_val@U?$_Tree_simple_types@U?$pair@$$CBV?$basic_string@DU?$char_traits@D@std@@V?$allocator@D@2@@std@@PAVAccount@@@std@@@std@@@std@@@std@@_N@1@$$QAU?$pair@$$CBV?$basic_string@DU?$char_traits@D@std@@V?$allocator@D@2@@std@@PAVAccount@@@1@@Z 00419da0 f i Source.obj
 0002:00008ee0       ??$move@AAU?$pair@$$CBV?$basic_string@DU?$char_traits@D@std@@V?$allocator@D@2@@std@@PAVAccount@@@std@@@std@@YA$$QAU?$pair@$$CBV?$basic_string@DU?$char_traits@D@std@@V?$allocator@D@2@@std@@PAVAccount@@@0@AAU10@@Z 00419ee0 f i Source.obj
 0002:00008f70       ??$move@AAV?$allocator@D@std@@@std@@YA$$QAV?$allocator@D@0@AAV10@@Z 00419f70 f i Source.obj
 0002:00009000       ??$move@AAV?$basic_istream@DU?$char_traits@D@std@@@std@@@std@@YA$$QAV?$basic_istream@DU?$char_traits@D@std@@@0@AAV10@@Z 0041a000 f i Source.obj
 0002:00009090       ??$move@AAV?$basic_string@DU?$char_traits@D@std@@V?$allocator@D@2@@std@@@std@@YA$$QAV?$basic_string@DU?$char_traits@D@std@@V?$allocator@D@2@@0@AAV10@@Z 0041a090 f i Source.obj
 0002:00009120       ??$move@AAV?$tuple@$$QAV?$basic_string@DU?$char_traits@D@std@@V?$allocator@D@2@@std@@@std@@@std@@YA$$QAV?$tuple@$$QAV?$basic_string@DU?$char_traits@D@std@@V?$allocator@D@2@@std@@@0@AAV10@@Z 0041a120 f i Source.obj
 0002:000091b0       ??$use_facet@V?$codecvt@DDU_Mbstatet@@@std@@@std@@YAABV?$codecvt@DDU_Mbstatet@@@0@ABVlocale@0@@Z 0041a1b0 f i Source.obj
 0002:00009410       ??0?$_Alloc_construct_ptr@V?$allocator@U?$_Tree_node@U?$pair@$$CBV?$basic_string@DU?$char_traits@D@std@@V?$allocator@D@2@@std@@PAVAccount@@@std@@PAX@std@@@std@@@std@@QAE@AAV?$allocator@U?$_Tree_node@U?$pair@$$CBV?$basic_string@DU?$char_traits@D@std@@V?$allocator@D@2@@std@@PAVAccount@@@std@@PAX@std@@@1@@Z 0041a410 f i Source.obj
 0002:00009480       ??0?$_Container_proxy_ptr12@V?$allocator@U_Container_proxy@std@@@std@@@std@@QAE@AAV?$allocator@U_Container_proxy@std@@@1@AAU_Container_base12@1@@Z 0041a480 f i Source.obj
 0002:00009540       ??0?$_String_val@U?$_Simple_types@D@std@@@std@@QAE@XZ 0041a540 f i Source.obj
 0002:000095d0       ??0?$_Tree@V?$_Tmap_traits@V?$basic_string@DU?$char_traits@D@std@@V?$allocator@D@2@@std@@PAVAccount@@U?$less@V?$basic_string@DU?$char_traits@D@std@@V?$allocator@D@2@@std@@@2@V?$allocator@U?$pair@$$CBV?$basic_string@DU?$char_traits@D@std@@V?$allocator@D@2@@std@@PAVAccount@@@std@@@2@$0A@@std@@@std@@QAE@ABU?$less@V?$basic_string@DU?$char_traits@D@std@@V?$allocator@D@2@@std@@@1@@Z 0041a5d0 f i Source.obj
 0002:00009660       ??0?$_Tree_const_iterator@V?$_Tree_val@U?$_Tree_simple_types@U?$pair@$$CBV?$basic_string@DU?$char_traits@D@std@@V?$allocator@D@2@@std@@PAVAccount@@@std@@@std@@@std@@@std@@QAE@$$QAV01@@Z 0041a660 f i Source.obj
 0002:000096c0       ??0?$_Tree_const_iterator@V?$_Tree_val@U?$_Tree_simple_types@U?$pair@$$CBV?$basic_string@DU?$char_traits@D@std@@V?$allocator@D@2@@std@@PAVAccount@@@std@@@std@@@std@@@std@@QAE@ABV01@@Z 0041a6c0 f i Source.obj
 0002:00009720       ??0?$_Tree_const_iterator@V?$_Tree_val@U?$_Tree_simple_types@U?$pair@$$CBV?$basic_string@DU?$char_traits@D@std@@V?$allocator@D@2@@std@@PAVAccount@@@std@@@std@@@std@@@std@@QAE@PAU?$_Tree_node@U?$pair@$$CBV?$basic_string@DU?$char_traits@D@std@@V?$allocator@D@2@@std@@PAVAccount@@@std@@PAX@1@PBV?$_Tree_val@U?$_Tree_simple_types@U?$pair@$$CBV?$basic_string@DU?$char_traits@D@std@@V?$allocator@D@2@@std@@PAVAccount@@@std@@@std@@@1@@Z 0041a720 f i Source.obj
 0002:00009790       ??0?$_Tree_iterator@V?$_Tree_val@U?$_Tree_simple_types@U?$pair@$$CBV?$basic_string@DU?$char_traits@D@std@@V?$allocator@D@2@@std@@PAVAccount@@@std@@@std@@@std@@@std@@QAE@$$QAV01@@Z 0041a790 f i Source.obj
 0002:000097f0       ??0?$_Tree_iterator@V?$_Tree_val@U?$_Tree_simple_types@U?$pair@$$CBV?$basic_string@DU?$char_traits@D@std@@V?$allocator@D@2@@std@@PAVAccount@@@std@@@std@@@std@@@std@@QAE@ABV01@@Z 0041a7f0 f i Source.obj
 0002:00009850       ??0?$_Tree_iterator@V?$_Tree_val@U?$_Tree_simple_types@U?$pair@$$CBV?$basic_string@DU?$char_traits@D@std@@V?$allocator@D@2@@std@@PAVAccount@@@std@@@std@@@std@@@std@@QAE@PAU?$_Tree_node@U?$pair@$$CBV?$basic_string@DU?$char_traits@D@std@@V?$allocator@D@2@@std@@PAVAccount@@@std@@PAX@1@PBV?$_Tree_val@U?$_Tree_simple_types@U?$pair@$$CBV?$basic_string@DU?$char_traits@D@std@@V?$allocator@D@2@@std@@PAVAccount@@@std@@@std@@@1@@Z 0041a850 f i Source.obj
 0002:000098c0       ??0?$_Tree_temp_node_alloc@V?$allocator@U?$_Tree_node@U?$pair@$$CBV?$basic_string@DU?$char_traits@D@std@@V?$allocator@D@2@@std@@PAVAccount@@@std@@PAX@std@@@std@@@std@@QAE@AAV?$allocator@U?$_Tree_node@U?$pair@$$CBV?$basic_string@DU?$char_traits@D@std@@V?$allocator@D@2@@std@@PAVAccount@@@std@@PAX@std@@@1@@Z 0041a8c0 f i Source.obj
 0002:00009980       ??0?$_Tree_unchecked_const_iterator@V?$_Tree_val@U?$_Tree_simple_types@U?$pair@$$CBV?$basic_string@DU?$char_traits@D@std@@V?$allocator@D@2@@std@@PAVAccount@@@std@@@std@@@std@@U_Iterator_base12@2@@std@@QAE@$$QAV01@@Z 0041a980 f i Source.obj
 0002:000099f0       ??0?$_Tree_unchecked_const_iterator@V?$_Tree_val@U?$_Tree_simple_types@U?$pair@$$CBV?$basic_string@DU?$char_traits@D@std@@V?$allocator@D@2@@std@@PAVAccount@@@std@@@std@@@std@@U_Iterator_base12@2@@std@@QAE@ABV01@@Z 0041a9f0 f i Source.obj
 0002:00009a60       ??0?$_Tree_unchecked_const_iterator@V?$_Tree_val@U?$_Tree_simple_types@U?$pair@$$CBV?$basic_string@DU?$char_traits@D@std@@V?$allocator@D@2@@std@@PAVAccount@@@std@@@std@@@std@@U_Iterator_base12@2@@std@@QAE@PAU?$_Tree_node@U?$pair@$$CBV?$basic_string@DU?$char_traits@D@std@@V?$allocator@D@2@@std@@PAVAccount@@@std@@PAX@1@PBV?$_Tree_val@U?$_Tree_simple_types@U?$pair@$$CBV?$basic_string@DU?$char_traits@D@std@@V?$allocator@D@2@@std@@PAVAccount@@@std@@@std@@@1@@Z 0041aa60 f i Source.obj
 0002:00009ae0       ??0?$_Tree_val@U?$_Tree_simple_types@U?$pair@$$CBV?$basic_string@DU?$char_traits@D@std@@V?$allocator@D@2@@std@@PAVAccount@@@std@@@std@@@std@@QAE@XZ 0041aae0 f i Source.obj
 0002:00009b60       ??0?$allocator@D@std@@QAE@XZ 0041ab60 f i Source.obj
 0002:00009bf0       ??0?$allocator@U?$_Tree_node@U?$pair@$$CBV?$basic_string@DU?$char_traits@D@std@@V?$allocator@D@2@@std@@PAVAccount@@@std@@PAX@std@@@std@@QAE@XZ 0041abf0 f i Source.obj
 0002:00009c80       ??0?$basic_filebuf@DU?$char_traits@D@std@@@std@@QAE@PAU_iobuf@@@Z 0041ac80 f i Source.obj
 0002:00009d50       ??0?$basic_ifstream@DU?$char_traits@D@std@@@std@@QAE@PBDHH@Z 0041ad50 f i Source.obj
 0002:00009f10       ??0?$basic_ofstream@DU?$char_traits@D@std@@@std@@QAE@PBDHH@Z 0041af10 f i Source.obj
 0002:0000a0d0       ??0?$basic_string@DU?$char_traits@D@std@@V?$allocator@D@2@@std@@QAE@$$QAV01@@Z 0041b0d0 f i Source.obj
 0002:0000a1d0       ??0?$basic_string@DU?$char_traits@D@std@@V?$allocator@D@2@@std@@QAE@ABV01@@Z 0041b1d0 f i Source.obj
 0002:0000a360       ??0?$basic_string@DU?$char_traits@D@std@@V?$allocator@D@2@@std@@QAE@ABV01@IIABV?$allocator@D@1@@Z 0041b360 f i Source.obj
 0002:0000a4f0       ??0?$basic_string@DU?$char_traits@D@std@@V?$allocator@D@2@@std@@QAE@XZ 0041b4f0 f i Source.obj
 0002:0000a5c0       ??0?$fpos@U_Mbstatet@@@std@@QAE@U_Mbstatet@@_J@Z 0041b5c0 f i Source.obj
 0002:0000a660       ??0?$fpos@U_Mbstatet@@@std@@QAE@_J@Z 0041b660 f i Source.obj
 0002:0000a6f0       ??0?$map@V?$basic_string@DU?$char_traits@D@std@@V?$allocator@D@2@@std@@PAVAccount@@U?$less@V?$basic_string@DU?$char_traits@D@std@@V?$allocator@D@2@@std@@@2@V?$allocator@U?$pair@$$CBV?$basic_string@DU?$char_traits@D@std@@V?$allocator@D@2@@std@@PAVAccount@@@std@@@2@@std@@QAE@XZ 0041b6f0 f i Source.obj
 0002:0000a760       ??0?$pair@$$CBV?$basic_string@DU?$char_traits@D@std@@V?$allocator@D@2@@std@@PAVAccount@@@std@@QAE@$$QAU01@@Z 0041b760 f i Source.obj
 0002:0000a7e0       ??0?$tuple@$$QAV?$basic_string@DU?$char_traits@D@std@@V?$allocator@D@2@@std@@@std@@QAE@$$QAV01@@Z 0041b7e0 f i Source.obj
 0002:0000a890       ??0?$tuple@$$V@std@@QAE@ABV01@@Z 0041b890 f i Source.obj
 0002:0000a920       ??0?$tuple@$$V@std@@QAE@XZ 0041b920 f i Source.obj
 0002:0000a9b0       ??0Account@@QAE@XZ         0041b9b0 f i Source.obj
 0002:0000aa70       ??0BalancedAcc@@QAE@XZ     0041ba70 f i Source.obj
 0002:0000ab10       ??0BonusAcc@@QAE@XZ        0041bb10 f i Source.obj
 0002:0000abb0       ??0Manager@@QAE@XZ         0041bbb0 f i Source.obj
 0002:0000ad40       ??0ServiceAcc@@QAE@XZ      0041bd40 f i Source.obj
 0002:0000ade0       ??0SimpleAcc@@QAE@XZ       0041bde0 f i Source.obj
 0002:0000ae80       ??0_Bxty@?$_String_val@U?$_Simple_types@D@std@@@std@@QAE@XZ 0041be80 f i Source.obj
 0002:0000aee0       ??0_Container_base12@std@@QAE@XZ 0041bee0 f i Source.obj
 0002:0000af40       ??0_Container_proxy@std@@QAE@PAU_Container_base12@1@@Z 0041bf40 f i Source.obj
 0002:0000aff0       ??0_Iterator_base12@std@@QAE@ABU01@@Z 0041bff0 f i Source.obj
 0002:0000b0b0       ??0_Iterator_base12@std@@QAE@XZ 0041c0b0 f i Source.obj
 0002:0000b160       ??0_Sentry_base@?$basic_istream@DU?$char_traits@D@std@@@std@@QAE@AAV12@@Z 0041c160 f i Source.obj
 0002:0000b220       ??0_Sentry_base@?$basic_ostream@DU?$char_traits@D@std@@@std@@QAE@AAV12@@Z 0041c220 f i Source.obj
 0002:0000b2e0       ??0bad_alloc@std@@AAE@QBD@Z 0041c2e0 f i Source.obj
 0002:0000b390       ??0bad_alloc@std@@QAE@ABV01@@Z 0041c390 f i Source.obj
 0002:0000b400       ??0bad_array_new_length@std@@QAE@ABV01@@Z 0041c400 f i Source.obj
 0002:0000b470       ??0bad_array_new_length@std@@QAE@XZ 0041c470 f i Source.obj
 0002:0000b520       ??0bad_cast@std@@QAE@ABV01@@Z 0041c520 f i Source.obj
 0002:0000b590       ??0bad_cast@std@@QAE@XZ    0041c590 f i Source.obj
 0002:0000b640       ??0exception@std@@QAE@ABV01@@Z 0041c640 f i Source.obj
 0002:0000b710       ??0exception@std@@QAE@QBD@Z 0041c710 f i Source.obj
 0002:0000b830       ??0exception@std@@QAE@QBDH@Z 0041c830 f i Source.obj
 0002:0000b8f0       ??0runtime_error@std@@QAE@ABV01@@Z 0041c8f0 f i Source.obj
 0002:0000b960       ??0runtime_error@std@@QAE@PBD@Z 0041c960 f i Source.obj
 0002:0000b9e0       ??0sentry@?$basic_istream@DU?$char_traits@D@std@@@std@@QAE@AAV12@_N@Z 0041c9e0 f i Source.obj
 0002:0000bac0       ??0sentry@?$basic_ostream@DU?$char_traits@D@std@@@std@@QAE@AAV12@@Z 0041cac0 f i Source.obj
 0002:0000bc30       ??1?$_Alloc_construct_ptr@V?$allocator@U?$_Tree_node@U?$pair@$$CBV?$basic_string@DU?$char_traits@D@std@@V?$allocator@D@2@@std@@PAVAccount@@@std@@PAX@std@@@std@@@std@@QAE@XZ 0041cc30 f i Source.obj
 0002:0000bce0       ??1?$_Compressed_pair@V?$allocator@D@std@@V?$_String_val@U?$_Simple_types@D@std@@@2@$00@std@@QAE@XZ 0041cce0 f i Source.obj
 0002:0000bd30       ??1?$_Container_proxy_ptr12@V?$allocator@U_Container_proxy@std@@@std@@@std@@QAE@XZ 0041cd30 f i Source.obj
 0002:0000bde0       ??1?$_String_val@U?$_Simple_types@D@std@@@std@@QAE@XZ 0041cde0 f i Source.obj
 0002:0000be40       ??1?$_Tree@V?$_Tmap_traits@V?$basic_string@DU?$char_traits@D@std@@V?$allocator@D@2@@std@@PAVAccount@@U?$less@V?$basic_string@DU?$char_traits@D@std@@V?$allocator@D@2@@std@@@2@V?$allocator@U?$pair@$$CBV?$basic_string@DU?$char_traits@D@std@@V?$allocator@D@2@@std@@PAVAccount@@@std@@@2@$0A@@std@@@std@@QAE@XZ 0041ce40 f i Source.obj
 0002:0000bf70       ??1?$_Tree_const_iterator@V?$_Tree_val@U?$_Tree_simple_types@U?$pair@$$CBV?$basic_string@DU?$char_traits@D@std@@V?$allocator@D@2@@std@@PAVAccount@@@std@@@std@@@std@@@std@@QAE@XZ 0041cf70 f i Source.obj
 0002:0000bfc0       ??1?$_Tree_iterator@V?$_Tree_val@U?$_Tree_simple_types@U?$pair@$$CBV?$basic_string@DU?$char_traits@D@std@@V?$allocator@D@2@@std@@PAVAccount@@@std@@@std@@@std@@@std@@QAE@XZ 0041cfc0 f i Source.obj
 0002:0000c010       ??1?$_Tree_temp_node@V?$allocator@U?$_Tree_node@U?$pair@$$CBV?$basic_string@DU?$char_traits@D@std@@V?$allocator@D@2@@std@@PAVAccount@@@std@@PAX@std@@@std@@@std@@QAE@XZ 0041d010 f i Source.obj
 0002:0000c120       ??1?$_Tree_temp_node_alloc@V?$allocator@U?$_Tree_node@U?$pair@$$CBV?$basic_string@DU?$char_traits@D@std@@V?$allocator@D@2@@std@@PAVAccount@@@std@@PAX@std@@@std@@@std@@QAE@XZ 0041d120 f i Source.obj
 0002:0000c170       ??1?$_Tree_unchecked_const_iterator@V?$_Tree_val@U?$_Tree_simple_types@U?$pair@$$CBV?$basic_string@DU?$char_traits@D@std@@V?$allocator@D@2@@std@@PAVAccount@@@std@@@std@@@std@@U_Iterator_base12@2@@std@@QAE@XZ 0041d170 f i Source.obj
 0002:0000c1c0       ??1?$basic_filebuf@DU?$char_traits@D@std@@@std@@UAE@XZ 0041d1c0 f i Source.obj
 0002:0000c2a0       ??1?$basic_ifstream@DU?$char_traits@D@std@@@std@@UAE@XZ 0041d2a0 f i Source.obj
 0002:0000c390       ??1?$basic_ofstream@DU?$char_traits@D@std@@@std@@UAE@XZ 0041d390 f i Source.obj
 0002:0000c480       ??1?$basic_string@DU?$char_traits@D@std@@V?$allocator@D@2@@std@@QAE@XZ 0041d480 f i Source.obj
 0002:0000c5b0       ??1?$map@V?$basic_string@DU?$char_traits@D@std@@V?$allocator@D@2@@std@@PAVAccount@@U?$less@V?$basic_string@DU?$char_traits@D@std@@V?$allocator@D@2@@std@@@2@V?$allocator@U?$pair@$$CBV?$basic_string@DU?$char_traits@D@std@@V?$allocator@D@2@@std@@PAVAccount@@@std@@@2@@std@@QAE@XZ 0041d5b0 f i Source.obj
 0002:0000c600       ??1?$pair@$$CBV?$basic_string@DU?$char_traits@D@std@@V?$allocator@D@2@@std@@PAVAccount@@@std@@QAE@XZ 0041d600 f i Source.obj
 0002:0000c650       ??1?$pair@V?$_Tree_iterator@V?$_Tree_val@U?$_Tree_simple_types@U?$pair@$$CBV?$basic_string@DU?$char_traits@D@std@@V?$allocator@D@2@@std@@PAVAccount@@@std@@@std@@@std@@@std@@_N@std@@QAE@XZ 0041d650 f i Source.obj
 0002:0000c6a0       ??1?$unique_ptr@V_Facet_base@std@@U?$default_delete@V_Facet_base@std@@@2@@std@@QAE@XZ 0041d6a0 f i Source.obj
 0002:0000c750       ??1Manager@@QAE@XZ         0041d750 f i Source.obj
 0002:0000c810       ??1_Bxty@?$_String_val@U?$_Simple_types@D@std@@@std@@QAE@XZ 0041d810 f i Source.obj
 0002:0000c8a0       ??1_Iterator_base12@std@@QAE@XZ 0041d8a0 f i Source.obj
 0002:0000c9b0       ??1_Sentry_base@?$basic_istream@DU?$char_traits@D@std@@@std@@QAE@XZ 0041d9b0 f i Source.obj
 0002:0000caa0       ??1_Sentry_base@?$basic_ostream@DU?$char_traits@D@std@@@std@@QAE@XZ 0041daa0 f i Source.obj
 0002:0000cb90       ??1bad_alloc@std@@UAE@XZ   0041db90 f i Source.obj
 0002:0000cbe0       ??1bad_array_new_length@std@@UAE@XZ 0041dbe0 f i Source.obj
 0002:0000cc30       ??1bad_cast@std@@UAE@XZ    0041dc30 f i Source.obj
 0002:0000cc80       ??1exception@std@@UAE@XZ   0041dc80 f i Source.obj
 0002:0000cd30       ??1locale@std@@QAE@XZ      0041dd30 f i Source.obj
 0002:0000ce40       ??1runtime_error@std@@UAE@XZ 0041de40 f i Source.obj
 0002:0000ce90       ??1sentry@?$basic_istream@DU?$char_traits@D@std@@@std@@QAE@XZ 0041de90 f i Source.obj
 0002:0000cee0       ??1sentry@?$basic_ostream@DU?$char_traits@D@std@@@std@@QAE@XZ 0041dee0 f i Source.obj
 0002:0000cfa0       ??2@YAPAXIPAX@Z            0041dfa0 f i Source.obj
 0002:0000d030       ??4?$basic_string@DU?$char_traits@D@std@@V?$allocator@D@2@@std@@QAEAAV01@ABV01@@Z 0041e030 f i Source.obj
 0002:0000d0c0       ??4_Iterator_base12@std@@QAEAAU01@ABU01@@Z 0041e0c0 f i Source.obj
 0002:0000d200       ??8?$_Tree_const_iterator@V?$_Tree_val@U?$_Tree_simple_types@U?$pair@$$CBV?$basic_string@DU?$char_traits@D@std@@V?$allocator@D@2@@std@@PAVAccount@@@std@@@std@@@std@@@std@@QBE_NABV01@@Z 0041e200 f i Source.obj
 0002:0000d320       ??9?$_Tree_const_iterator@V?$_Tree_val@U?$_Tree_simple_types@U?$pair@$$CBV?$basic_string@DU?$char_traits@D@std@@V?$allocator@D@2@@std@@PAVAccount@@@std@@@std@@@std@@@std@@QBE_NABV01@@Z 0041e320 f i Source.obj
 0002:0000d3b0       ??A?$map@V?$basic_string@DU?$char_traits@D@std@@V?$allocator@D@2@@std@@PAVAccount@@U?$less@V?$basic_string@DU?$char_traits@D@std@@V?$allocator@D@2@@std@@@2@V?$allocator@U?$pair@$$CBV?$basic_string@DU?$char_traits@D@std@@V?$allocator@D@2@@std@@PAVAccount@@@std@@@2@@std@@QAEAAPAVAccount@@$$QAV?$basic_string@DU?$char_traits@D@std@@V?$allocator@D@2@@1@@Z 0041e3b0 f i Source.obj
 0002:0000d430       ??B?$fpos@U_Mbstatet@@@std@@QBE_JXZ 0041e430 f i Source.obj
 0002:0000d4a0       ??Bsentry@?$basic_istream@DU?$char_traits@D@std@@@std@@QBE_NXZ 0041e4a0 f i Source.obj
 0002:0000d500       ??Bsentry@?$basic_ostream@DU?$char_traits@D@std@@@std@@QBE_NXZ 0041e500 f i Source.obj
 0002:0000d560       ??C?$_Tree_iterator@V?$_Tree_val@U?$_Tree_simple_types@U?$pair@$$CBV?$basic_string@DU?$char_traits@D@std@@V?$allocator@D@2@@std@@PAVAccount@@@std@@@std@@@std@@@std@@QBEPAU?$pair@$$CBV?$basic_string@DU?$char_traits@D@std@@V?$allocator@D@2@@std@@PAVAccount@@@1@XZ 0041e560 f i Source.obj
 0002:0000d5d0       ??D?$_Tree_const_iterator@V?$_Tree_val@U?$_Tree_simple_types@U?$pair@$$CBV?$basic_string@DU?$char_traits@D@std@@V?$allocator@D@2@@std@@PAVAccount@@@std@@@std@@@std@@@std@@QBEABU?$pair@$$CBV?$basic_string@DU?$char_traits@D@std@@V?$allocator@D@2@@std@@PAVAccount@@@1@XZ 0041e5d0 f i Source.obj
 0002:0000d750       ??D?$_Tree_iterator@V?$_Tree_val@U?$_Tree_simple_types@U?$pair@$$CBV?$basic_string@DU?$char_traits@D@std@@V?$allocator@D@2@@std@@PAVAccount@@@std@@@std@@@std@@@std@@QBEAAU?$pair@$$CBV?$basic_string@DU?$char_traits@D@std@@V?$allocator@D@2@@std@@PAVAccount@@@1@XZ 0041e750 f i Source.obj
 0002:0000d7b0       ??E?$_Tree_const_iterator@V?$_Tree_val@U?$_Tree_simple_types@U?$pair@$$CBV?$basic_string@DU?$char_traits@D@std@@V?$allocator@D@2@@std@@PAVAccount@@@std@@@std@@@std@@@std@@QAEAAV01@XZ 0041e7b0 f i Source.obj
 0002:0000d930       ??E?$_Tree_iterator@V?$_Tree_val@U?$_Tree_simple_types@U?$pair@$$CBV?$basic_string@DU?$char_traits@D@std@@V?$allocator@D@2@@std@@PAVAccount@@@std@@@std@@@std@@@std@@QAE?AV01@H@Z 0041e930 f i Source.obj
 0002:0000da80       ??E?$_Tree_unchecked_const_iterator@V?$_Tree_val@U?$_Tree_simple_types@U?$pair@$$CBV?$basic_string@DU?$char_traits@D@std@@V?$allocator@D@2@@std@@PAVAccount@@@std@@@std@@@std@@U_Iterator_base12@2@@std@@QAEAAV01@XZ 0041ea80 f i Source.obj
 0002:0000db60       ??R<lambda_15711c68e099a15a58f4d77303cb286d>@@QBEXQADQBDID@Z 0041eb60 f i Source.obj
 0002:0000dc10       ??R<lambda_9366063389c5f42a00a5088cf24e69de>@@QBEXQADIQBD@Z 0041ec10 f i Source.obj
 0002:0000dcb0       ??R?$default_delete@V_Facet_base@std@@@std@@QBEXPAV_Facet_base@1@@Z 0041ecb0 f i Source.obj
 0002:0000dd90       ??R?$less@V?$basic_string@DU?$char_traits@D@std@@V?$allocator@D@2@@std@@@std@@QBE_NABV?$basic_string@DU?$char_traits@D@std@@V?$allocator@D@2@@1@0@Z 0041ed90 f i Source.obj
 0002:0000de00       ??Y?$basic_string@DU?$char_traits@D@std@@V?$allocator@D@2@@std@@QAEAAV01@D@Z 0041ee00 f i Source.obj
 0002:0000de70       ??_D?$basic_ifstream@DU?$char_traits@D@std@@@std@@QAEXXZ 0041ee70 f i Source.obj
 0002:0000dee0       ??_D?$basic_ofstream@DU?$char_traits@D@std@@@std@@QAEXXZ 0041eee0 f i Source.obj
 0002:0000df4c       ??_E?$basic_ifstream@DU?$char_traits@D@std@@@std@@$4PPPPPPPM@A@AEPAXI@Z 0041ef4c f i Source.obj
 0002:0000df56       ??_E?$basic_ofstream@DU?$char_traits@D@std@@@std@@$4PPPPPPPM@A@AEPAXI@Z 0041ef56 f i Source.obj
 0002:0000df60       ??_E?$basic_filebuf@DU?$char_traits@D@std@@@std@@UAEPAXI@Z 0041ef60 f i Source.obj
 0002:0000df60       ??_G?$basic_filebuf@DU?$char_traits@D@std@@@std@@UAEPAXI@Z 0041ef60 f i Source.obj
 0002:0000dfd0       ??_E?$basic_ifstream@DU?$char_traits@D@std@@@std@@UAEPAXI@Z 0041efd0 f i Source.obj
 0002:0000dfd0       ??_G?$basic_ifstream@DU?$char_traits@D@std@@@std@@UAEPAXI@Z 0041efd0 f i Source.obj
 0002:0000e050       ??_E?$basic_ofstream@DU?$char_traits@D@std@@@std@@UAEPAXI@Z 0041f050 f i Source.obj
 0002:0000e050       ??_G?$basic_ofstream@DU?$char_traits@D@std@@@std@@UAEPAXI@Z 0041f050 f i Source.obj
 0002:0000e0d0       ??_G?$pair@$$CBV?$basic_string@DU?$char_traits@D@std@@V?$allocator@D@2@@std@@PAVAccount@@@std@@QAEPAXI@Z 0041f0d0 f i Source.obj
 0002:0000e140       ??_Ebad_alloc@std@@UAEPAXI@Z 0041f140 f i Source.obj
 0002:0000e140       ??_Gbad_alloc@std@@UAEPAXI@Z 0041f140 f i Source.obj
 0002:0000e1b0       ??_Ebad_array_new_length@std@@UAEPAXI@Z 0041f1b0 f i Source.obj
 0002:0000e1b0       ??_Gbad_array_new_length@std@@UAEPAXI@Z 0041f1b0 f i Source.obj
 0002:0000e220       ??_Gbad_cast@std@@UAEPAXI@Z 0041f220 f i Source.obj
 0002:0000e220       ??_Ebad_cast@std@@UAEPAXI@Z 0041f220 f i Source.obj
 0002:0000e290       ??_Gexception@std@@UAEPAXI@Z 0041f290 f i Source.obj
 0002:0000e290       ??_Eexception@std@@UAEPAXI@Z 0041f290 f i Source.obj
 0002:0000e300       ??_Eruntime_error@std@@UAEPAXI@Z 0041f300 f i Source.obj
 0002:0000e300       ??_Gruntime_error@std@@UAEPAXI@Z 0041f300 f i Source.obj
 0002:0000e370       ?_Adjust_manually_vector_aligned@std@@YAXAAPAXAAI@Z 0041f370 f i Source.obj
 0002:0000e540       ?_Adopt@_Iterator_base12@std@@QAEXPBU_Container_base12@2@@Z 0041f540 f i Source.obj
 0002:0000e6e0       ?_Alloc_sentinel_and_proxy@?$_Tree@V?$_Tmap_traits@V?$basic_string@DU?$char_traits@D@std@@V?$allocator@D@2@@std@@PAVAccount@@U?$less@V?$basic_string@DU?$char_traits@D@std@@V?$allocator@D@2@@std@@@2@V?$allocator@U?$pair@$$CBV?$basic_string@DU?$char_traits@D@std@@V?$allocator@D@2@@std@@PAVAccount@@@std@@@2@$0A@@std@@@std@@IAEXXZ 0041f6e0 f i Source.obj
 0002:0000e850       ?_Allocate@?$_Alloc_construct_ptr@V?$allocator@U?$_Tree_node@U?$pair@$$CBV?$basic_string@DU?$char_traits@D@std@@V?$allocator@D@2@@std@@PAVAccount@@@std@@PAX@std@@@std@@@std@@QAEXXZ 0041f850 f i Source.obj
 0002:0000e8d0       ?_Allocate@_Default_allocate_traits@std@@SAPAXI@Z 0041f8d0 f i Source.obj
 0002:0000e930       ?_Calculate_growth@?$basic_string@DU?$char_traits@D@std@@V?$allocator@D@2@@std@@ABEII@Z 0041f930 f i Source.obj
 0002:0000e9e0       ?_Calculate_growth@?$basic_string@DU?$char_traits@D@std@@V?$allocator@D@2@@std@@CAIIII@Z 0041f9e0 f i Source.obj
 0002:0000eb10       ?_Check_grow_by_1@?$_Tree@V?$_Tmap_traits@V?$basic_string@DU?$char_traits@D@std@@V?$allocator@D@2@@std@@PAVAccount@@U?$less@V?$basic_string@DU?$char_traits@D@std@@V?$allocator@D@2@@std@@@2@V?$allocator@U?$pair@$$CBV?$basic_string@DU?$char_traits@D@std@@V?$allocator@D@2@@std@@PAVAccount@@@std@@@2@$0A@@std@@@std@@IAEXXZ 0041fb10 f i Source.obj
 0002:0000eb90       ?_Check_offset@?$_String_val@U?$_Simple_types@D@std@@@std@@QBEXI@Z 0041fb90 f i Source.obj
 0002:0000ec00       ?_Clamp_suffix_size@?$_String_val@U?$_Simple_types@D@std@@@std@@QBEIII@Z 0041fc00 f i Source.obj
 0002:0000ecc0       ?_Construct_lv_contents@?$basic_string@DU?$char_traits@D@std@@V?$allocator@D@2@@std@@AAEXABV12@@Z 0041fcc0 f i Source.obj
 0002:0000ee90       ?_Copy_assign@?$basic_string@DU?$char_traits@D@std@@V?$allocator@D@2@@std@@AAEXABV12@U?$integral_constant@_N$0A@@2@@Z 0041fe90 f i Source.obj
 0002:0000ef30       ?_Endwrite@?$basic_filebuf@DU?$char_traits@D@std@@@std@@IAE_NXZ 0041ff30 f i Source.obj
 0002:0000f170       ?_Eos@?$basic_string@DU?$char_traits@D@std@@V?$allocator@D@2@@std@@AAEXI@Z 00420170 f i Source.obj
 0002:0000f200       ?_Equal@?$basic_string@DU?$char_traits@D@std@@V?$allocator@D@2@@std@@QBE_NQBD@Z 00420200 f i Source.obj
 0002:0000f2c0       ?_Extract@?$_In_place_key_extract_map@V?$basic_string@DU?$char_traits@D@std@@V?$allocator@D@2@@std@@U?$pair@$$CBV?$basic_string@DU?$char_traits@D@std@@V?$allocator@D@2@@std@@PAVAccount@@@2@@std@@SAABV?$basic_string@DU?$char_traits@D@std@@V?$allocator@D@2@@2@ABU?$pair@$$CBV?$basic_string@DU?$char_traits@D@std@@V?$allocator@D@2@@std@@PAVAccount@@@2@@Z 004202c0 f i Source.obj
 0002:0000f310       ?_Get_first@?$_Compressed_pair@U?$default_delete@V_Facet_base@std@@@std@@PAV_Facet_base@2@$00@std@@QAEAAU?$default_delete@V_Facet_base@std@@@2@XZ 00420310 f i Source.obj
 0002:0000f3a0       ?_Get_first@?$_Compressed_pair@U?$less@V?$basic_string@DU?$char_traits@D@std@@V?$allocator@D@2@@std@@@std@@V?$_Compressed_pair@V?$allocator@U?$_Tree_node@U?$pair@$$CBV?$basic_string@DU?$char_traits@D@std@@V?$allocator@D@2@@std@@PAVAccount@@@std@@PAX@std@@@std@@V?$_Tree_val@U?$_Tree_simple_types@U?$pair@$$CBV?$basic_string@DU?$char_traits@D@std@@V?$allocator@D@2@@std@@PAVAccount@@@std@@@std@@@2@$00@2@$00@std@@QBEABU?$less@V?$basic_string@DU?$char_traits@D@std@@V?$allocator@D@2@@std@@@2@XZ 004203a0 f i Source.obj
 0002:0000f430       ?_Get_first@?$_Compressed_pair@V?$allocator@D@std@@V?$_String_val@U?$_Simple_types@D@std@@@2@$00@std@@QAEAAV?$allocator@D@2@XZ 00420430 f i Source.obj
 0002:0000f4c0       ?_Get_first@?$_Compressed_pair@V?$allocator@D@std@@V?$_String_val@U?$_Simple_types@D@std@@@2@$00@std@@QBEABV?$allocator@D@2@XZ 004204c0 f i Source.obj
 0002:0000f550       ?_Get_first@?$_Compressed_pair@V?$allocator@U?$_Tree_node@U?$pair@$$CBV?$basic_string@DU?$char_traits@D@std@@V?$allocator@D@2@@std@@PAVAccount@@@std@@PAX@std@@@std@@V?$_Tree_val@U?$_Tree_simple_types@U?$pair@$$CBV?$basic_string@DU?$char_traits@D@std@@V?$allocator@D@2@@std@@PAVAccount@@@std@@@std@@@2@$00@std@@QAEAAV?$allocator@U?$_Tree_node@U?$pair@$$CBV?$basic_string@DU?$char_traits@D@std@@V?$allocator@D@2@@std@@PAVAccount@@@std@@PAX@std@@@2@XZ 00420550 f i Source.obj
 0002:0000f5e0       ?_Get_first@?$_Compressed_pair@V?$allocator@U?$_Tree_node@U?$pair@$$CBV?$basic_string@DU?$char_traits@D@std@@V?$allocator@D@2@@std@@PAVAccount@@@std@@PAX@std@@@std@@V?$_Tree_val@U?$_Tree_simple_types@U?$pair@$$CBV?$basic_string@DU?$char_traits@D@std@@V?$allocator@D@2@@std@@PAVAccount@@@std@@@std@@@2@$00@std@@QBEABV?$allocator@U?$_Tree_node@U?$pair@$$CBV?$basic_string@DU?$char_traits@D@std@@V?$allocator@D@2@@std@@PAVAccount@@@std@@PAX@std@@@2@XZ 004205e0 f i Source.obj
 0002:0000f670       ?_Get_scary@?$_Tree@V?$_Tmap_traits@V?$basic_string@DU?$char_traits@D@std@@V?$allocator@D@2@@std@@PAVAccount@@U?$less@V?$basic_string@DU?$char_traits@D@std@@V?$allocator@D@2@@std@@@2@V?$allocator@U?$pair@$$CBV?$basic_string@DU?$char_traits@D@std@@V?$allocator@D@2@@std@@PAVAccount@@@std@@@2@$0A@@std@@@std@@IAEPAV?$_Tree_val@U?$_Tree_simple_types@U?$pair@$$CBV?$basic_string@DU?$char_traits@D@std@@V?$allocator@D@2@@std@@PAVAccount@@@std@@@std@@@2@XZ 00420670 f i Source.obj
 0002:0000f710       ?_Get_scary@?$_Tree@V?$_Tmap_traits@V?$basic_string@DU?$char_traits@D@std@@V?$allocator@D@2@@std@@PAVAccount@@U?$less@V?$basic_string@DU?$char_traits@D@std@@V?$allocator@D@2@@std@@@2@V?$allocator@U?$pair@$$CBV?$basic_string@DU?$char_traits@D@std@@V?$allocator@D@2@@std@@PAVAccount@@@std@@@2@$0A@@std@@@std@@IBEPBV?$_Tree_val@U?$_Tree_simple_types@U?$pair@$$CBV?$basic_string@DU?$char_traits@D@std@@V?$allocator@D@2@@std@@PAVAccount@@@std@@@std@@@2@XZ 00420710 f i Source.obj
 0002:0000f7b0       ?_Getal@?$_Tree@V?$_Tmap_traits@V?$basic_string@DU?$char_traits@D@std@@V?$allocator@D@2@@std@@PAVAccount@@U?$less@V?$basic_string@DU?$char_traits@D@std@@V?$allocator@D@2@@std@@@2@V?$allocator@U?$pair@$$CBV?$basic_string@DU?$char_traits@D@std@@V?$allocator@D@2@@std@@PAVAccount@@@std@@@2@$0A@@std@@@std@@IAEAAV?$allocator@U?$_Tree_node@U?$pair@$$CBV?$basic_string@DU?$char_traits@D@std@@V?$allocator@D@2@@std@@PAVAccount@@@std@@PAX@std@@@2@XZ 004207b0 f i Source.obj
 0002:0000f840       ?_Getal@?$_Tree@V?$_Tmap_traits@V?$basic_string@DU?$char_traits@D@std@@V?$allocator@D@2@@std@@PAVAccount@@U?$less@V?$basic_string@DU?$char_traits@D@std@@V?$allocator@D@2@@std@@@2@V?$allocator@U?$pair@$$CBV?$basic_string@DU?$char_traits@D@std@@V?$allocator@D@2@@std@@PAVAccount@@@std@@@2@$0A@@std@@@std@@IBEABV?$allocator@U?$_Tree_node@U?$pair@$$CBV?$basic_string@DU?$char_traits@D@std@@V?$allocator@D@2@@std@@PAVAccount@@@std@@PAX@std@@@2@XZ 00420840 f i Source.obj
 0002:0000f8d0       ?_Getal@?$basic_string@DU?$char_traits@D@std@@V?$allocator@D@2@@std@@AAEAAV?$allocator@D@2@XZ 004208d0 f i Source.obj
 0002:0000f960       ?_Getal@?$basic_string@DU?$char_traits@D@std@@V?$allocator@D@2@@std@@ABEABV?$allocator@D@2@XZ 00420960 f i Source.obj
 0002:0000f9f0       ?_Getcomp@?$_Tree@V?$_Tmap_traits@V?$basic_string@DU?$char_traits@D@std@@V?$allocator@D@2@@std@@PAVAccount@@U?$less@V?$basic_string@DU?$char_traits@D@std@@V?$allocator@D@2@@std@@@2@V?$allocator@U?$pair@$$CBV?$basic_string@DU?$char_traits@D@std@@V?$allocator@D@2@@std@@PAVAccount@@@std@@@2@$0A@@std@@@std@@IBEABU?$less@V?$basic_string@DU?$char_traits@D@std@@V?$allocator@D@2@@std@@@2@XZ 004209f0 f i Source.obj
 0002:0000fa80       ?_Getcont@_Iterator_base12@std@@QBEPBU_Container_base12@2@XZ 00420a80 f i Source.obj
 0002:0000fb40       ?_Getfacet@locale@std@@QBEPBVfacet@12@I@Z 00420b40 f i Source.obj
 0002:0000fc30       ?_Init@?$basic_filebuf@DU?$char_traits@D@std@@@std@@IAEXPAU_iobuf@@W4_Initfl@12@@Z 00420c30 f i Source.obj
 0002:0000fe10       ?_Initcvt@?$basic_filebuf@DU?$char_traits@D@std@@@std@@IAEXABV?$codecvt@DDU_Mbstatet@@@2@@Z 00420e10 f i Source.obj
 0002:0000fec0       ?_Insert_node@?$_Tree_val@U?$_Tree_simple_types@U?$pair@$$CBV?$basic_string@DU?$char_traits@D@std@@V?$allocator@D@2@@std@@PAVAccount@@@std@@@std@@@std@@QAEPAU?$_Tree_node@U?$pair@$$CBV?$basic_string@DU?$char_traits@D@std@@V?$allocator@D@2@@std@@PAVAccount@@@std@@PAX@2@U?$_Tree_id@PAU?$_Tree_node@U?$pair@$$CBV?$basic_string@DU?$char_traits@D@std@@V?$allocator@D@2@@std@@PAVAccount@@@std@@PAX@std@@@2@QAU32@@Z 00420ec0 f i Source.obj
 0002:00010130       ?size@?$basic_string@DU?$char_traits@D@std@@V?$allocator@D@2@@std@@QBEIXZ 00421130 f i Source.obj
 0002:000101c0       ?_Large_string_engaged@?$_String_val@U?$_Simple_types@D@std@@@std@@QBE_NXZ 004211c0 f i Source.obj
 0002:00010240       ?_Lock@?$basic_filebuf@DU?$char_traits@D@std@@@std@@UAEXXZ 00421240 f i Source.obj
 0002:000102c0       ?_Lrotate@?$_Tree_val@U?$_Tree_simple_types@U?$pair@$$CBV?$basic_string@DU?$char_traits@D@std@@V?$allocator@D@2@@std@@PAVAccount@@@std@@@std@@@std@@QAEXPAU?$_Tree_node@U?$pair@$$CBV?$basic_string@DU?$char_traits@D@std@@V?$allocator@D@2@@std@@PAVAccount@@@std@@PAX@2@@Z 004212c0 f i Source.obj
 0002:000103d0       ?_Memcpy_val_from@?$basic_string@DU?$char_traits@D@std@@V?$allocator@D@2@@std@@AAEXABV12@@Z 004213d0 f i Source.obj
 0002:000104a0       ?_Min@?$_Tree_val@U?$_Tree_simple_types@U?$pair@$$CBV?$basic_string@DU?$char_traits@D@std@@V?$allocator@D@2@@std@@PAVAccount@@@std@@@std@@@std@@SAPAU?$_Tree_node@U?$pair@$$CBV?$basic_string@DU?$char_traits@D@std@@V?$allocator@D@2@@std@@PAVAccount@@@std@@PAX@2@PAU32@@Z 004214a0 f i Source.obj
 0002:00010510       ?_Myptr@?$_String_val@U?$_Simple_types@D@std@@@std@@QAEPADXZ 00421510 f i Source.obj
 0002:000105a0       ?_Myptr@?$_String_val@U?$_Simple_types@D@std@@@std@@QBEPBDXZ 004215a0 f i Source.obj
 0002:00010630       ?_Orphan_all@_Container_base12@std@@QAEXXZ 00421630 f i Source.obj
 0002:00010790       ?_Orphan_me@_Iterator_base12@std@@QAEXXZ 00421790 f i Source.obj
 0002:00010900       ?_Release@?$_Alloc_construct_ptr@V?$allocator@U?$_Tree_node@U?$pair@$$CBV?$basic_string@DU?$char_traits@D@std@@V?$allocator@D@2@@std@@PAVAccount@@@std@@PAX@std@@@std@@@std@@QAEPAU?$_Tree_node@U?$pair@$$CBV?$basic_string@DU?$char_traits@D@std@@V?$allocator@D@2@@std@@PAVAccount@@@std@@PAX@2@XZ 00421900 f i Source.obj
 0002:000109b0       ?_Release@_Basic_container_proxy_ptr12@std@@QAEXXZ 004219b0 f i Source.obj
 0002:00010a50       ?_Reset_back@?$basic_filebuf@DU?$char_traits@D@std@@@std@@AAEXXZ 00421a50 f i Source.obj
 0002:00010b00       ?_Rrotate@?$_Tree_val@U?$_Tree_simple_types@U?$pair@$$CBV?$basic_string@DU?$char_traits@D@std@@V?$allocator@D@2@@std@@PAVAccount@@@std@@@std@@@std@@QAEXPAU?$_Tree_node@U?$pair@$$CBV?$basic_string@DU?$char_traits@D@std@@V?$allocator@D@2@@std@@PAVAccount@@@std@@PAX@2@@Z 00421b00 f i Source.obj
 0002:00010c10       ?_Set_back@?$basic_filebuf@DU?$char_traits@D@std@@@std@@AAEXXZ 00421c10 f i Source.obj
 0002:00010d00       ?_Swap_proxy_and_iterators@?$basic_string@DU?$char_traits@D@std@@V?$allocator@D@2@@std@@AAEXAAV12@@Z 00421d00 f i Source.obj
 0002:00010d70       ?_Swap_proxy_and_iterators@_Container_base12@std@@QAEXAAU12@@Z 00421d70 f i Source.obj
 0002:00010ec0       ?_Take_contents@?$basic_string@DU?$char_traits@D@std@@V?$allocator@D@2@@std@@AAEXAAV12@U?$integral_constant@_N$00@2@@Z 00421ec0 f i Source.obj
 0002:00010f90       ?_Throw_bad_array_new_length@std@@YAXXZ 00421f90 f i Source.obj
 0002:00011000       ?_Throw_bad_cast@std@@YAXXZ 00422000 f i Source.obj
 0002:00011070       ?_Throw_tree_length_error@std@@YAXXZ 00422070 f i Source.obj
 0002:000110d0       ?_Tidy_deallocate@?$basic_string@DU?$char_traits@D@std@@V?$allocator@D@2@@std@@AAEXXZ 004220d0 f i Source.obj
 0002:00011210       ?_Tidy_init@?$basic_string@DU?$char_traits@D@std@@V?$allocator@D@2@@std@@AAEXXZ 00422210 f i Source.obj
 0002:000112e0       ?_Unlock@?$basic_filebuf@DU?$char_traits@D@std@@@std@@UAEXXZ 004222e0 f i Source.obj
 0002:00011360       ?_Xlen@?$basic_string@DU?$char_traits@D@std@@V?$allocator@D@2@@std@@CAXXZ 00422360 f i Source.obj
 0002:000113c0       ?_Xran@?$_String_val@U?$_Simple_types@D@std@@@std@@SAXXZ 004223c0 f i Source.obj
 0002:00011420       ?__autoclassinit2@?$_Tree_iterator@V?$_Tree_val@U?$_Tree_simple_types@U?$pair@$$CBV?$basic_string@DU?$char_traits@D@std@@V?$allocator@D@2@@std@@PAVAccount@@@std@@@std@@@std@@@std@@QAEXI@Z 00422420 f i Source.obj
 0002:00011480       ?__autoclassinit2@?$unique_ptr@V_Facet_base@std@@U?$default_delete@V_Facet_base@std@@@2@@std@@QAEXI@Z 00422480 f i Source.obj
 0002:000114e0       ?__autoclassinit2@Manager@@QAEXI@Z 004224e0 f i Source.obj
 0002:00011540       ?__empty_global_delete@@YAXPAX@Z 00422540 f i Source.obj
 0002:00011590       ?__empty_global_delete@@YAXPAXI@Z 00422590 f i Source.obj
 0002:00011590       ?__global_delete@@YAXPAXI@Z 00422590 f i Source.obj
 0002:000115e0       ?allocate@?$allocator@D@std@@QAEPADI@Z 004225e0 f i Source.obj
 0002:00011650       ?allocate@?$allocator@U?$_Tree_node@U?$pair@$$CBV?$basic_string@DU?$char_traits@D@std@@V?$allocator@D@2@@std@@PAVAccount@@@std@@PAX@std@@@std@@QAEPAU?$_Tree_node@U?$pair@$$CBV?$basic_string@DU?$char_traits@D@std@@V?$allocator@D@2@@std@@PAVAccount@@@std@@PAX@2@I@Z 00422650 f i Source.obj
 0002:000116c0       ?allocate@?$allocator@U_Container_proxy@std@@@std@@QAEPAU_Container_proxy@2@I@Z 004226c0 f i Source.obj
 0002:00011730       ?assign@?$_Narrow_char_traits@DH@std@@SAXAADABD@Z 00422730 f i Source.obj
 0002:000117c0       ?assign@?$basic_string@DU?$char_traits@D@std@@V?$allocator@D@2@@std@@QAEAAV12@ABV12@II@Z 004227c0 f i Source.obj
 0002:00011860       ?assign@?$basic_string@DU?$char_traits@D@std@@V?$allocator@D@2@@std@@QAEAAV12@QBDI@Z 00422860 f i Source.obj
 0002:00011950       ?begin@?$_Tree@V?$_Tmap_traits@V?$basic_string@DU?$char_traits@D@std@@V?$allocator@D@2@@std@@PAVAccount@@U?$less@V?$basic_string@DU?$char_traits@D@std@@V?$allocator@D@2@@std@@@2@V?$allocator@U?$pair@$$CBV?$basic_string@DU?$char_traits@D@std@@V?$allocator@D@2@@std@@PAVAccount@@@std@@@2@$0A@@std@@@std@@QAE?AV?$_Tree_iterator@V?$_Tree_val@U?$_Tree_simple_types@U?$pair@$$CBV?$basic_string@DU?$char_traits@D@std@@V?$allocator@D@2@@std@@PAVAccount@@@std@@@std@@@std@@@2@XZ 00422950 f i Source.obj
 0002:00011a10       ?c_str@?$basic_string@DU?$char_traits@D@std@@V?$allocator@D@2@@std@@QBEPBDXZ 00422a10 f i Source.obj
 0002:00011aa0       ?close@?$basic_filebuf@DU?$char_traits@D@std@@@std@@QAEPAV12@XZ 00422aa0 f i Source.obj
 0002:00011b70       ?compare@?$_Narrow_char_traits@DH@std@@SAHQBD0I@Z 00422b70 f i Source.obj
 0002:00011c10       ?compare@?$basic_string@DU?$char_traits@D@std@@V?$allocator@D@2@@std@@QBEHABV12@@Z 00422c10 f i Source.obj
 0002:00011cd0       ?convert@Manager@@QAE?AW4accounttype@@AAV?$basic_string@DU?$char_traits@D@std@@V?$allocator@D@2@@std@@@Z 00422cd0 f i Source.obj
 0002:00012020       ?copy@?$_Narrow_char_traits@DH@std@@SAPADQADQBDI@Z 00423020 f i Source.obj
 0002:000120c0       ?count@?$_Tree@V?$_Tmap_traits@V?$basic_string@DU?$char_traits@D@std@@V?$allocator@D@2@@std@@PAVAccount@@U?$less@V?$basic_string@DU?$char_traits@D@std@@V?$allocator@D@2@@std@@@2@V?$allocator@U?$pair@$$CBV?$basic_string@DU?$char_traits@D@std@@V?$allocator@D@2@@std@@PAVAccount@@@std@@@2@$0A@@std@@@std@@QBEIABV?$basic_string@DU?$char_traits@D@std@@V?$allocator@D@2@@2@@Z 004230c0 f i Source.obj
 0002:00012150       ?create@Manager@@QAEPAVAccount@@XZ 00423150 f i Source.obj
 0002:000128d0       ?overflow@?$basic_filebuf@DU?$char_traits@D@std@@@std@@MAEHH@Z 004238d0 f i Source.obj
 0002:00012be0       ?data@?$basic_string@DU?$char_traits@D@std@@V?$allocator@D@2@@std@@QBEPBDXZ 00423be0 f i Source.obj
 0002:00012c70       ?deallocate@?$_Default_allocator_traits@V?$allocator@U?$_Tree_node@U?$pair@$$CBV?$basic_string@DU?$char_traits@D@std@@V?$allocator@D@2@@std@@PAVAccount@@@std@@PAX@std@@@std@@@std@@SAXAAV?$allocator@U?$_Tree_node@U?$pair@$$CBV?$basic_string@DU?$char_traits@D@std@@V?$allocator@D@2@@std@@PAVAccount@@@std@@PAX@std@@@2@QAU?$_Tree_node@U?$pair@$$CBV?$basic_string@DU?$char_traits@D@std@@V?$allocator@D@2@@std@@PAVAccount@@@std@@PAX@2@I@Z 00423c70 f i Source.obj
 0002:00012cd0       ?deallocate@?$_Default_allocator_traits@V?$allocator@U_Container_proxy@std@@@std@@@std@@SAXAAV?$allocator@U_Container_proxy@std@@@2@QAU_Container_proxy@2@I@Z 00423cd0 f i Source.obj
 0002:00012d40       ?deallocate@?$allocator@D@std@@QAEXQADI@Z 00423d40 f i Source.obj
 0002:00012db0       ?deallocate@?$allocator@U?$_Tree_node@U?$pair@$$CBV?$basic_string@DU?$char_traits@D@std@@V?$allocator@D@2@@std@@PAVAccount@@@std@@PAX@std@@@std@@QAEXQAU?$_Tree_node@U?$pair@$$CBV?$basic_string@DU?$char_traits@D@std@@V?$allocator@D@2@@std@@PAVAccount@@@std@@PAX@2@I@Z 00423db0 f i Source.obj
 0002:00012e20       ?end@?$_Tree@V?$_Tmap_traits@V?$basic_string@DU?$char_traits@D@std@@V?$allocator@D@2@@std@@PAVAccount@@U?$less@V?$basic_string@DU?$char_traits@D@std@@V?$allocator@D@2@@std@@@2@V?$allocator@U?$pair@$$CBV?$basic_string@DU?$char_traits@D@std@@V?$allocator@D@2@@std@@PAVAccount@@@std@@@2@$0A@@std@@@std@@QAE?AV?$_Tree_iterator@V?$_Tree_val@U?$_Tree_simple_types@U?$pair@$$CBV?$basic_string@DU?$char_traits@D@std@@V?$allocator@D@2@@std@@PAVAccount@@@std@@@std@@@std@@@2@XZ 00423e20 f i Source.obj
 0002:00012ee0       ?eof@?$_Narrow_char_traits@DH@std@@SAHXZ 00423ee0 f i Source.obj
 0002:00012f70       ?eq_int_type@?$_Narrow_char_traits@DH@std@@SA_NABH0@Z 00423f70 f i Source.obj
 0002:00013030       ?erase@?$basic_string@DU?$char_traits@D@std@@V?$allocator@D@2@@std@@QAEAAV12@I@Z 00424030 f i Source.obj
 0002:000130b0       ?erase@?$basic_string@DU?$char_traits@D@std@@V?$allocator@D@2@@std@@QAEAAV12@II@Z 004240b0 f i Source.obj
 0002:00013190       ?find@?$_Tree@V?$_Tmap_traits@V?$basic_string@DU?$char_traits@D@std@@V?$allocator@D@2@@std@@PAVAccount@@U?$less@V?$basic_string@DU?$char_traits@D@std@@V?$allocator@D@2@@std@@@2@V?$allocator@U?$pair@$$CBV?$basic_string@DU?$char_traits@D@std@@V?$allocator@D@2@@std@@PAVAccount@@@std@@@2@$0A@@std@@@std@@QAE?AV?$_Tree_iterator@V?$_Tree_val@U?$_Tree_simple_types@U?$pair@$$CBV?$basic_string@DU?$char_traits@D@std@@V?$allocator@D@2@@std@@PAVAccount@@@std@@@std@@@std@@@2@ABV?$basic_string@DU?$char_traits@D@std@@V?$allocator@D@2@@2@@Z 00424190 f i Source.obj
 0002:00013230       ?fixed@std@@YAAAVios_base@1@AAV21@@Z 00424230 f i Source.obj
 0002:00013290       ?push_back@?$basic_string@DU?$char_traits@D@std@@V?$allocator@D@2@@std@@QAEXD@Z 00424290 f i Source.obj
 0002:00013360       ?sync@?$basic_filebuf@DU?$char_traits@D@std@@@std@@MAEHXZ 00424360 f i Source.obj
 0002:00013420       ?get_balance@Account@@QAENXZ 00424420 f i Source.obj
 0002:000134b0       ?get_code@Account@@QAE?AV?$basic_string@DU?$char_traits@D@std@@V?$allocator@D@2@@std@@XZ 004244b0 f i Source.obj
 0002:00013540       ?get_first_name@Account@@QAE?AV?$basic_string@DU?$char_traits@D@std@@V?$allocator@D@2@@std@@XZ 00424540 f i Source.obj
 0002:000135d0       ?get_last_name@Account@@QAE?AV?$basic_string@DU?$char_traits@D@std@@V?$allocator@D@2@@std@@XZ 004245d0 f i Source.obj
 0002:00013640       ?imbue@?$basic_filebuf@DU?$char_traits@D@std@@@std@@MAEXABVlocale@2@@Z 00424640 f i Source.obj
 0002:000136d0       ?length@?$_Narrow_char_traits@DH@std@@SAIQBD@Z 004246d0 f i Source.obj
 0002:00013760       ?length@?$basic_string@DU?$char_traits@D@std@@V?$allocator@D@2@@std@@QBEIXZ 00424760 f i Source.obj
 0002:000137f0       ?max@?$numeric_limits@H@std@@SAHXZ 004247f0 f i Source.obj
 0002:00013880       ?max_size@?$_Default_allocator_traits@V?$allocator@D@std@@@std@@SAIABV?$allocator@D@2@@Z 00424880 f i Source.obj
 0002:00013910       ?max_size@?$_Default_allocator_traits@V?$allocator@U?$_Tree_node@U?$pair@$$CBV?$basic_string@DU?$char_traits@D@std@@V?$allocator@D@2@@std@@PAVAccount@@@std@@PAX@std@@@std@@@std@@SAIABV?$allocator@U?$_Tree_node@U?$pair@$$CBV?$basic_string@DU?$char_traits@D@std@@V?$allocator@D@2@@std@@PAVAccount@@@std@@PAX@std@@@2@@Z 00424910 f i Source.obj
 0002:000139e0       ?max_size@?$_Tree@V?$_Tmap_traits@V?$basic_string@DU?$char_traits@D@std@@V?$allocator@D@2@@std@@PAVAccount@@U?$less@V?$basic_string@DU?$char_traits@D@std@@V?$allocator@D@2@@std@@@2@V?$allocator@U?$pair@$$CBV?$basic_string@DU?$char_traits@D@std@@V?$allocator@D@2@@std@@PAVAccount@@@std@@@2@$0A@@std@@@std@@QBEIXZ 004249e0 f i Source.obj
 0002:00013a90       ?seekpos@?$basic_filebuf@DU?$char_traits@D@std@@@std@@MAE?AV?$fpos@U_Mbstatet@@@2@V32@H@Z 00424a90 f i Source.obj
 0002:00013c10       ?monthly_update@BalancedAcc@@UAEXXZ 00424c10 f i Source.obj
 0002:00013d40       ?monthly_update@ServiceAcc@@UAEXXZ 00424d40 f i Source.obj
 0002:00013db0       ?monthly_update@SimpleAcc@@UAEXXZ 00424db0 f i Source.obj
 0002:00013e50       ?move@?$_Narrow_char_traits@DH@std@@SAPADQADQBDI@Z 00424e50 f i Source.obj
 0002:00013f30       ?not_eof@?$_Narrow_char_traits@DH@std@@SAHABH@Z 00424f30 f i Source.obj
 0002:00014080       ?open@?$basic_filebuf@DU?$char_traits@D@std@@@std@@QAEPAV12@PBDHH@Z 00425080 f i Source.obj
 0002:00014190       ?pbackfail@?$basic_filebuf@DU?$char_traits@D@std@@@std@@MAEHH@Z 00425190 f i Source.obj
 0002:00014370       ?process@Manager@@QAEXXZ   00425370 f i Source.obj
 0002:000146f0       ?pointer_to@?$pointer_traits@PAU?$pair@$$CBV?$basic_string@DU?$char_traits@D@std@@V?$allocator@D@2@@std@@PAVAccount@@@std@@@std@@SAPAU?$pair@$$CBV?$basic_string@DU?$char_traits@D@std@@V?$allocator@D@2@@std@@PAVAccount@@@2@AAU32@@Z 004256f0 f i Source.obj
 0002:00014770       ?stod@std@@YANABV?$basic_string@DU?$char_traits@D@std@@V?$allocator@D@2@@1@PAI@Z 00425770 f i Source.obj
 0002:00014870       ?uflow@?$basic_filebuf@DU?$char_traits@D@std@@@std@@MAEHXZ 00425870 f i Source.obj
 0002:00014cc0       ?release@?$unique_ptr@V_Facet_base@std@@U?$default_delete@V_Facet_base@std@@@2@@std@@QAEPAV_Facet_base@2@XZ 00425cc0 f i Source.obj
 0002:00014e90       ?seekoff@?$basic_filebuf@DU?$char_traits@D@std@@@std@@MAE?AV?$fpos@U_Mbstatet@@@2@_JHH@Z 00425e90 f i Source.obj
 0002:00015050       ?select_on_container_copy_construction@?$_Default_allocator_traits@V?$allocator@D@std@@@std@@SA?AV?$allocator@D@2@ABV32@@Z 00426050 f i Source.obj
 0002:000150c0       ?set_balance@Account@@QAEXABN@Z 004260c0 f i Source.obj
 0002:00015130       ?set_code@Account@@QAEXABV?$basic_string@DU?$char_traits@D@std@@V?$allocator@D@2@@std@@@Z 00426130 f i Source.obj
 0002:000151a0       ?set_first_name@Account@@QAEXABV?$basic_string@DU?$char_traits@D@std@@V?$allocator@D@2@@std@@@Z 004261a0 f i Source.obj
 0002:00015210       ?set_last_name@Account@@QAEXABV?$basic_string@DU?$char_traits@D@std@@V?$allocator@D@2@@std@@@Z 00426210 f i Source.obj
 0002:00015270       ?underflow@?$basic_filebuf@DU?$char_traits@D@std@@@std@@MAEHXZ 00426270 f i Source.obj
 0002:000153f0       ?state@?$fpos@U_Mbstatet@@@std@@QBE?AU_Mbstatet@@XZ 004263f0 f i Source.obj
 0002:00015450       ?xsputn@?$basic_filebuf@DU?$char_traits@D@std@@@std@@MAE_JPBD_J@Z 00426450 f i Source.obj
 0002:000155e0       ?substr@?$basic_string@DU?$char_traits@D@std@@V?$allocator@D@2@@std@@QBE?AV12@II@Z 004265e0 f i Source.obj
 0002:00015760       ?to_char_type@?$_Narrow_char_traits@DH@std@@SADABH@Z 00426760 f i Source.obj
 0002:000157f0       ?to_int_type@?$_Narrow_char_traits@DH@std@@SAHABD@Z 004267f0 f i Source.obj
 0002:00016660       ?xsgetn@?$basic_filebuf@DU?$char_traits@D@std@@@std@@MAE_JPAD_J@Z 00427660 f i Source.obj
 0002:00016890       ?type@BalancedAcc@@UBEDXZ  00427890 f i Source.obj
 0002:000168f0       ?type@BonusAcc@@UBEDXZ     004278f0 f i Source.obj
 0002:00016950       ?type@ServiceAcc@@UBEDXZ   00427950 f i Source.obj
 0002:000169b0       ?type@SimpleAcc@@UBEDXZ    004279b0 f i Source.obj
 0002:00016a00       _main                      00427a00 f   Source.obj
 0002:00017060       ?what@exception@std@@UBEPBDXZ 00428060 f i Source.obj
 0002:00017520       __JustMyCode_Default       00428520 f i Source.obj
 0002:000176e0       ??$_Traits_find_first_not_of@U?$char_traits@D@std@@@std@@YAIQBDII0IU?$integral_constant@_N$00@0@@Z 004286e0 f i StaticLib:trim.obj
 0002:000178b0       ??$_Traits_find_first_not_of@U?$char_traits@D@std@@@std@@YAIQBDII0IU?$integral_constant@_N$0A@@0@@Z 004288b0 f i StaticLib:trim.obj
 0002:000179a0       ??$_Traits_find_last_not_of@U?$char_traits@D@std@@@std@@YAIQBDII0IU?$integral_constant@_N$00@0@@Z 004289a0 f i StaticLib:trim.obj
 0002:00017b80       ??$_Traits_find_last_not_of@U?$char_traits@D@std@@@std@@YAIQBDII0IU?$integral_constant@_N$0A@@0@@Z 00428b80 f i StaticLib:trim.obj
 0002:00017c80       ??0?$_String_bitmap@D$00@std@@QAE@XZ 00428c80 f i StaticLib:trim.obj
 0002:00017ce0       ?_Mark@?$_String_bitmap@D$00@std@@QAE_NPBDQBD@Z 00428ce0 f i StaticLib:trim.obj
 0002:00017d60       ?_Match@?$_String_bitmap@D$00@std@@QBE_ND@Z 00428d60 f i StaticLib:trim.obj
 0002:00017dc0       ?find@?$_Narrow_char_traits@DH@std@@SAPBDQBDIABD@Z 00428dc0 f i StaticLib:trim.obj
 0002:00017e60       ?find_first_not_of@?$basic_string@DU?$char_traits@D@std@@V?$allocator@D@2@@std@@QBEIQBDI@Z 00428e60 f i StaticLib:trim.obj
 0002:00017f30       ?find_last_not_of@?$basic_string@DU?$char_traits@D@std@@V?$allocator@D@2@@std@@QBEIQBDI@Z 00428f30 f i StaticLib:trim.obj
 0002:00018000       ?trim@generic@@YA?AV?$basic_string@DU?$char_traits@D@std@@V?$allocator@D@2@@std@@ABV23@@Z 00429000 f   StaticLib:trim.obj
 0002:00018110       ?trim_left@generic@@YA?AV?$basic_string@DU?$char_traits@D@std@@V?$allocator@D@2@@std@@ABV23@@Z 00429110 f   StaticLib:trim.obj
 0002:000181e0       ?trim_right@generic@@YA?AV?$basic_string@DU?$char_traits@D@std@@V?$allocator@D@2@@std@@ABV23@@Z 004291e0 f   StaticLib:trim.obj
 0002:000182b3       ??0_Lockit@std@@QAE@H@Z    004292b3 f   msvcprtd:MSVCP140D.dll
 0002:000182b9       ??1_Lockit@std@@QAE@XZ     004292b9 f   msvcprtd:MSVCP140D.dll
 0002:000182bf       ?uncaught_exception@std@@YA_NXZ 004292bf f   msvcprtd:MSVCP140D.dll
 0002:000182c5       ?_Xinvalid_argument@std@@YAXPBD@Z 004292c5 f   msvcprtd:MSVCP140D.dll
 0002:000182cb       ?_Xlength_error@std@@YAXPBD@Z 004292cb f   msvcprtd:MSVCP140D.dll
 0002:000182d1       ?_Xout_of_range@std@@YAXPBD@Z 004292d1 f   msvcprtd:MSVCP140D.dll
 0002:000182e0       ??0_Fac_node@std@@QAE@PAU01@PAV_Facet_base@1@@Z 004292e0 f i msvcprtd:locale0_implib.obj
 0002:00018310       ??1_Fac_node@std@@QAE@XZ   00429310 f i msvcprtd:locale0_implib.obj
 0002:00018390       ??1_Fac_tidy_reg_t@std@@QAE@XZ 00429390 f i msvcprtd:locale0_implib.obj
 0002:000183f0       ??2_Fac_node@std@@SAPAXI@Z 004293f0 f i msvcprtd:locale0_implib.obj
 0002:00018450       ??3_Fac_node@std@@SAXPAX@Z 00429450 f i msvcprtd:locale0_implib.obj
 0002:00018470       ??_G_Fac_node@std@@QAEPAXI@Z 00429470 f i msvcprtd:locale0_implib.obj
 0002:000184d0       ?_Facet_Register@std@@YAXPAV_Facet_base@1@@Z 004294d0 f   msvcprtd:locale0_implib.obj
 0002:00018580       ?__empty_global_delete@@YAXPAXIW4align_val_t@std@@@Z 00429580 f i msvcprtd:locale0_implib.obj
 0002:00018590       ?__empty_global_delete@@YAXPAXW4align_val_t@std@@@Z 00429590 f i msvcprtd:locale0_implib.obj
 0002:00018595       ??Bid@locale@std@@QAEIXZ   00429595 f   msvcprtd:MSVCP140D.dll
 0002:0001859b       ?_Getgloballocale@locale@std@@CAPAV_Locimp@12@XZ 0042959b f   msvcprtd:MSVCP140D.dll
 0002:000185a1       ?always_noconv@codecvt_base@std@@QBE_NXZ 004295a1 f   msvcprtd:MSVCP140D.dll
 0002:000185a7       ?in@?$codecvt@DDU_Mbstatet@@@std@@QBEHAAU_Mbstatet@@PBD1AAPBDPAD3AAPAD@Z 004295a7 f   msvcprtd:MSVCP140D.dll
 0002:000185ad       ?out@?$codecvt@DDU_Mbstatet@@@std@@QBEHAAU_Mbstatet@@PBD1AAPBDPAD3AAPAD@Z 004295ad f   msvcprtd:MSVCP140D.dll
 0002:000185b3       ?unshift@?$codecvt@DDU_Mbstatet@@@std@@QBEHAAU_Mbstatet@@PAD1AAPAD@Z 004295b3 f   msvcprtd:MSVCP140D.dll
 0002:000185b9       ?_Getcat@?$codecvt@DDU_Mbstatet@@@std@@SAIPAPBVfacet@locale@2@PBV42@@Z 004295b9 f   msvcprtd:MSVCP140D.dll
 0002:000185bf       ??7ios_base@std@@QBE_NXZ   004295bf f   msvcprtd:MSVCP140D.dll
 0002:000185c5       ?good@ios_base@std@@QBE_NXZ 004295c5 f   msvcprtd:MSVCP140D.dll
 0002:000185cb       ?eof@ios_base@std@@QBE_NXZ 004295cb f   msvcprtd:MSVCP140D.dll
 0002:000185d1       ?flags@ios_base@std@@QBEHXZ 004295d1 f   msvcprtd:MSVCP140D.dll
 0002:000185d7       ?width@ios_base@std@@QBE_JXZ 004295d7 f   msvcprtd:MSVCP140D.dll
 0002:000185dd       ?width@ios_base@std@@QAE_J_J@Z 004295dd f   msvcprtd:MSVCP140D.dll
 0002:000185e3       ??0?$basic_streambuf@DU?$char_traits@D@std@@@std@@IAE@XZ 004295e3 f   msvcprtd:MSVCP140D.dll
 0002:000185e9       ??1?$basic_streambuf@DU?$char_traits@D@std@@@std@@UAE@XZ 004295e9 f   msvcprtd:MSVCP140D.dll
 0002:000185ef       ?getloc@?$basic_streambuf@DU?$char_traits@D@std@@@std@@QBE?AVlocale@2@XZ 004295ef f   msvcprtd:MSVCP140D.dll
 0002:000185f5       ?sbumpc@?$basic_streambuf@DU?$char_traits@D@std@@@std@@QAEHXZ 004295f5 f   msvcprtd:MSVCP140D.dll
 0002:000185fb       ?sgetc@?$basic_streambuf@DU?$char_traits@D@std@@@std@@QAEHXZ 004295fb f   msvcprtd:MSVCP140D.dll
 0002:00018601       ?snextc@?$basic_streambuf@DU?$char_traits@D@std@@@std@@QAEHXZ 00429601 f   msvcprtd:MSVCP140D.dll
 0002:00018607       ?sputc@?$basic_streambuf@DU?$char_traits@D@std@@@std@@QAEHD@Z 00429607 f   msvcprtd:MSVCP140D.dll
 0002:0001860d       ?sputn@?$basic_streambuf@DU?$char_traits@D@std@@@std@@QAE_JPBD_J@Z 0042960d f   msvcprtd:MSVCP140D.dll
 0002:00018613       ?eback@?$basic_streambuf@DU?$char_traits@D@std@@@std@@IBEPADXZ 00429613 f   msvcprtd:MSVCP140D.dll
 0002:00018619       ?gptr@?$basic_streambuf@DU?$char_traits@D@std@@@std@@IBEPADXZ 00429619 f   msvcprtd:MSVCP140D.dll
 0002:0001861f       ?pptr@?$basic_streambuf@DU?$char_traits@D@std@@@std@@IBEPADXZ 0042961f f   msvcprtd:MSVCP140D.dll
 0002:00018625       ?egptr@?$basic_streambuf@DU?$char_traits@D@std@@@std@@IBEPADXZ 00429625 f   msvcprtd:MSVCP140D.dll
 0002:0001862b       ?gbump@?$basic_streambuf@DU?$char_traits@D@std@@@std@@IAEXH@Z 0042962b f   msvcprtd:MSVCP140D.dll
 0002:00018631       ?setg@?$basic_streambuf@DU?$char_traits@D@std@@@std@@IAEXPAD00@Z 00429631 f   msvcprtd:MSVCP140D.dll
 0002:00018637       ?epptr@?$basic_streambuf@DU?$char_traits@D@std@@@std@@IBEPADXZ 00429637 f   msvcprtd:MSVCP140D.dll
 0002:0001863d       ?_Gndec@?$basic_streambuf@DU?$char_traits@D@std@@@std@@IAEPADXZ 0042963d f   msvcprtd:MSVCP140D.dll
 0002:00018643       ?_Gninc@?$basic_streambuf@DU?$char_traits@D@std@@@std@@IAEPADXZ 00429643 f   msvcprtd:MSVCP140D.dll
 0002:00018649       ?_Gnavail@?$basic_streambuf@DU?$char_traits@D@std@@@std@@IBE_JXZ 00429649 f   msvcprtd:MSVCP140D.dll
 0002:0001864f       ?pbump@?$basic_streambuf@DU?$char_traits@D@std@@@std@@IAEXH@Z 0042964f f   msvcprtd:MSVCP140D.dll
 0002:00018655       ?_Pninc@?$basic_streambuf@DU?$char_traits@D@std@@@std@@IAEPADXZ 00429655 f   msvcprtd:MSVCP140D.dll
 0002:0001865b       ?_Pnavail@?$basic_streambuf@DU?$char_traits@D@std@@@std@@IBE_JXZ 0042965b f   msvcprtd:MSVCP140D.dll
 0002:00018661       ?_Init@?$basic_streambuf@DU?$char_traits@D@std@@@std@@IAEXXZ 00429661 f   msvcprtd:MSVCP140D.dll
 0002:00018667       ?_Init@?$basic_streambuf@DU?$char_traits@D@std@@@std@@IAEXPAPAD0PAH001@Z 00429667 f   msvcprtd:MSVCP140D.dll
 0002:0001866d       ?xsgetn@?$basic_streambuf@DU?$char_traits@D@std@@@std@@MAE_JPAD_J@Z 0042966d f   msvcprtd:MSVCP140D.dll
 0002:00018673       ?xsputn@?$basic_streambuf@DU?$char_traits@D@std@@@std@@MAE_JPBD_J@Z 00429673 f   msvcprtd:MSVCP140D.dll
 0002:00018679       ??1?$basic_ios@DU?$char_traits@D@std@@@std@@UAE@XZ 00429679 f   msvcprtd:MSVCP140D.dll
 0002:0001867f       ?setstate@?$basic_ios@DU?$char_traits@D@std@@@std@@QAEXH_N@Z 0042967f f   msvcprtd:MSVCP140D.dll
 0002:00018685       ?tie@?$basic_ios@DU?$char_traits@D@std@@@std@@QBEPAV?$basic_ostream@DU?$char_traits@D@std@@@2@XZ 00429685 f   msvcprtd:MSVCP140D.dll
 0002:0001868b       ?rdbuf@?$basic_ios@DU?$char_traits@D@std@@@std@@QBEPAV?$basic_streambuf@DU?$char_traits@D@std@@@2@XZ 0042968b f   msvcprtd:MSVCP140D.dll
 0002:00018691       ?fill@?$basic_ios@DU?$char_traits@D@std@@@std@@QBEDXZ 00429691 f   msvcprtd:MSVCP140D.dll
 0002:00018697       ??0?$basic_ios@DU?$char_traits@D@std@@@std@@IAE@XZ 00429697 f   msvcprtd:MSVCP140D.dll
 0002:0001869d       ??0?$basic_ostream@DU?$char_traits@D@std@@@std@@QAE@PAV?$basic_streambuf@DU?$char_traits@D@std@@@1@_N@Z 0042969d f   msvcprtd:MSVCP140D.dll
 0002:000186a3       ??1?$basic_ostream@DU?$char_traits@D@std@@@std@@UAE@XZ 004296a3 f   msvcprtd:MSVCP140D.dll
 0002:000186a9       ?_Osfx@?$basic_ostream@DU?$char_traits@D@std@@@std@@QAEXXZ 004296a9 f   msvcprtd:MSVCP140D.dll
 0002:000186af       ??6?$basic_ostream@DU?$char_traits@D@std@@@std@@QAEAAV01@H@Z 004296af f   msvcprtd:MSVCP140D.dll
 0002:000186b5       ??6?$basic_ostream@DU?$char_traits@D@std@@@std@@QAEAAV01@N@Z 004296b5 f   msvcprtd:MSVCP140D.dll
 0002:000186bb       ?flush@?$basic_ostream@DU?$char_traits@D@std@@@std@@QAEAAV12@XZ 004296bb f   msvcprtd:MSVCP140D.dll
 0002:000186c1       ??0?$basic_istream@DU?$char_traits@D@std@@@std@@QAE@PAV?$basic_streambuf@DU?$char_traits@D@std@@@1@_N@Z 004296c1 f   msvcprtd:MSVCP140D.dll
 0002:000186c7       ??1?$basic_istream@DU?$char_traits@D@std@@@std@@UAE@XZ 004296c7 f   msvcprtd:MSVCP140D.dll
 0002:000186cd       ?_Ipfx@?$basic_istream@DU?$char_traits@D@std@@@std@@QAE_N_N@Z 004296cd f   msvcprtd:MSVCP140D.dll
 0002:000186d3       ?_Fiopen@std@@YAPAU_iobuf@@PBDHH@Z 004296d3 f   msvcprtd:MSVCP140D.dll
 0002:000186d9       ?showmanyc@?$basic_streambuf@DU?$char_traits@D@std@@@std@@MAE_JXZ 004296d9 f   msvcprtd:MSVCP140D.dll
 0002:000186df       ?_Xbad_alloc@std@@YAXXZ    004296df f   msvcprtd:MSVCP140D.dll
 0002:000186f0       ??2@YAPAXI@Z               004296f0 f   MSVCRTD:new_scalar.obj
 0002:00018750       ??3@YAXPAXI@Z              00429750 f   MSVCRTD:delete_scalar_size.obj
 0002:00018770       @_RTC_AllocaHelper@12      00429770 f   MSVCRTD:stack.obj
 0002:000187b0       @_RTC_CheckStackVars2@12   004297b0 f   MSVCRTD:stack.obj
 0002:000188d0       @_RTC_CheckStackVars@8     004298d0 f   MSVCRTD:stack.obj
 0002:00018950       __RTC_CheckEsp             00429950 f   MSVCRTD:stack.obj
 0002:00018990       @__CheckForDebuggerJustMyCode@4 00429990 f   MSVCRTD:debugger_jmc.obj
 0002:000189e0       @__security_check_cookie@4 004299e0 f   MSVCRTD:secchk.obj
 0002:00018a00       __CRT_RTC_INIT             00429a00 f   MSVCRTD:init.obj
 0002:00018a10       __CRT_RTC_INITW            00429a10 f   MSVCRTD:init.obj
 0002:00018a20       __RTC_InitBase             00429a20 f   MSVCRTD:init.obj
 0002:00018a60       __RTC_Shutdown             00429a60 f   MSVCRTD:init.obj
 0002:00018a80       ??1type_info@@UAE@XZ       00429a80 f   MSVCRTD:std_type_info_static.obj
 0002:00018aa0       ??_Etype_info@@UAEPAXI@Z   00429aa0 f i MSVCRTD:std_type_info_static.obj
 0002:00018aa0       ??_Gtype_info@@UAEPAXI@Z   00429aa0 f i MSVCRTD:std_type_info_static.obj
 0002:00018eb0       ?configure_argv@__scrt_narrow_argv_policy@@SAHXZ 00429eb0 f i MSVCRTD:exe_main.obj
 0002:00018ed0       ?initialize_environment@__scrt_narrow_environment_policy@@SAHXZ 00429ed0 f i MSVCRTD:exe_main.obj
 0002:00018f30       ?set_app_type@__scrt_main_policy@@SAXXZ 00429f30 f i MSVCRTD:exe_main.obj
 0002:00018f50       ?set_commode@__scrt_file_policy@@SAXXZ 00429f50 f i MSVCRTD:exe_main.obj
 0002:00018f70       ?set_fmode@__scrt_file_policy@@SAXXZ 00429f70 f i MSVCRTD:exe_main.obj
 0002:00018f90       _mainCRTStartup            00429f90 f   MSVCRTD:exe_main.obj
 0002:000190e0       _NtCurrentTeb              0042a0e0 f i MSVCRTD:utility.obj
 0002:000190f0       ___scrt_acquire_startup_lock 0042a0f0 f   MSVCRTD:utility.obj
 0002:00019150       ___scrt_dllmain_after_initialize_c 0042a150 f   MSVCRTD:utility.obj
 0002:00019190       ___scrt_dllmain_before_initialize_c 0042a190 f   MSVCRTD:utility.obj
 0002:000191c0       ___scrt_dllmain_crt_thread_attach 0042a1c0 f   MSVCRTD:utility.obj
 0002:00019200       ___scrt_dllmain_crt_thread_detach 0042a200 f   MSVCRTD:utility.obj
 0002:00019220       ___scrt_dllmain_exception_filter 0042a220 f   MSVCRTD:utility.obj
 0002:00019280       ___scrt_dllmain_uninitialize_c 0042a280 f   MSVCRTD:utility.obj
 0002:000192c0       ___scrt_dllmain_uninitialize_critical 0042a2c0 f   MSVCRTD:utility.obj
 0002:000192e0       ___scrt_initialize_crt     0042a2e0 f   MSVCRTD:utility.obj
 0002:00019340       ___scrt_initialize_onexit_tables 0042a340 f   MSVCRTD:utility.obj
 0002:00019450       ___scrt_is_nonwritable_in_current_image 0042a450 f   MSVCRTD:utility.obj
 0002:000195d0       ___scrt_release_startup_lock 0042a5d0 f   MSVCRTD:utility.obj
 0002:00019600       ___scrt_uninitialize_crt   0042a600 f   MSVCRTD:utility.obj
 0002:00019650       __onexit                   0042a650 f   MSVCRTD:utility.obj
 0002:000196d0       _at_quick_exit             0042a6d0 f   MSVCRTD:utility.obj
 0002:00019720       _atexit                    0042a720 f   MSVCRTD:utility.obj
 0002:00019760       @_guard_check_icall_nop@4  0042a760 f i MSVCRTD:guard_support.obj
 0002:00019770       _ReadNoFence               0042a770 f i MSVCRTD:guard_support.obj
 0002:00019790       _ReadPointerNoFence        0042a790 f i MSVCRTD:guard_support.obj
 0002:000197b0       __guard_icall_checks_enforced 0042a7b0 f i MSVCRTD:guard_support.obj
 0002:000197f0       ??0bad_alloc@std@@QAE@XZ   0042a7f0 f i MSVCRTD:throw_bad_alloc.obj
 0002:00019820       ?__scrt_throw_std_bad_alloc@@YAXXZ 0042a820 f   MSVCRTD:throw_bad_alloc.obj
 0002:00019850       ?__scrt_throw_std_bad_array_new_length@@YAXXZ 0042a850 f   MSVCRTD:throw_bad_alloc.obj
 0002:00019880       ??3@YAXPAX@Z               0042a880 f   MSVCRTD:delete_scalar.obj
 0002:00019950       ?_RTC_AllocaFailure@@YAXPAXPAU_RTC_ALLOCA_NODE@@H@Z 0042a950 f   MSVCRTD:error.obj
 0002:00019a70       ?_RTC_Failure@@YAXPAXH@Z   0042aa70 f   MSVCRTD:error.obj
 0002:00019ae0       ?_RTC_StackFailure@@YAXPAXPBD@Z 0042aae0 f   MSVCRTD:error.obj
 0002:00019f90       __RTC_UninitUse            0042af90 f   MSVCRTD:error.obj
 0002:0001a070       ___local_stdio_printf_options 0042b070 f i MSVCRTD:error.obj
 0002:0001a080       __vsprintf_s_l             0042b080 f i MSVCRTD:error.obj
 0002:0001a0c0       _sprintf_s                 0042b0c0 f i MSVCRTD:error.obj
 0002:0001a0f0       ___raise_securityfailure   0042b0f0 f   MSVCRTD:gs_report.obj
 0002:0001a130       ___report_gsfailure        0042b130 f   MSVCRTD:gs_report.obj
 0002:0001a280       ___report_rangecheckfailure 0042b280 f   MSVCRTD:gs_report.obj
 0002:0001a290       ___report_securityfailure  0042b290 f   MSVCRTD:gs_report.obj
 0002:0001a3a0       ___report_securityfailureEx 0042b3a0 f   MSVCRTD:gs_report.obj
 0002:0001a510       ?_RTC_GetErrorFunc@@YAP6AHHPBDH00ZZPBX@Z 0042b510 f   MSVCRTD:userapi.obj
 0002:0001a520       ?_RTC_GetErrorFuncW@@YAP6AHHPB_WH00ZZPBX@Z 0042b520 f   MSVCRTD:userapi.obj
 0002:0001a530       __RTC_GetErrDesc           0042b530 f   MSVCRTD:userapi.obj
 0002:0001a550       __RTC_NumErrors            0042b550 f   MSVCRTD:userapi.obj
 0002:0001a560       __RTC_SetErrorFunc         0042b560 f   MSVCRTD:userapi.obj
 0002:0001a590       __RTC_SetErrorFuncW        0042b590 f   MSVCRTD:userapi.obj
 0002:0001a5c0       __RTC_SetErrorType         0042b5c0 f   MSVCRTD:userapi.obj
 0002:0001a680       ___security_init_cookie    0042b680 f   MSVCRTD:gs_support.obj
 0002:0001a720       __matherr                  0042b720 f   MSVCRTD:matherr.obj
 0002:0001a730       __get_startup_argv_mode    0042b730 f   MSVCRTD:argv_mode.obj
 0002:0001a740       __get_startup_commit_mode  0042b740 f   MSVCRTD:commit_mode.obj
 0002:0001a750       __get_startup_file_mode    0042b750 f   MSVCRTD:file_mode.obj
 0002:0001a760       __get_startup_new_mode     0042b760 f   MSVCRTD:new_mode.obj
 0002:0001a770       __get_startup_thread_locale_mode 0042b770 f   MSVCRTD:thread_locale.obj
 0002:0001a780       ?__scrt_initialize_type_info@@YAXXZ 0042b780 f   MSVCRTD:tncleanup.obj
 0002:0001a7a0       ?__scrt_uninitialize_type_info@@YAXXZ 0042b7a0 f   MSVCRTD:tncleanup.obj
 0002:0001a7c0       __should_initialize_environment 0042b7c0 f   MSVCRTD:env_mode.obj
 0002:0001a7d0       __initialize_default_precision 0042b7d0 f   MSVCRTD:default_precision.obj
 0002:0001a800       __initialize_invalid_parameter_handler 0042b800 f   MSVCRTD:invalid_parameter_handler.obj
 0002:0001a810       __initialize_denormal_control 0042b810 f   MSVCRTD:denormal_control.obj
 0002:0001a820       ___local_stdio_scanf_options 0042b820 f i MSVCRTD:default_local_stdio_options.obj
 0002:0001a830       ___scrt_initialize_default_local_stdio_options 0042b830 f   MSVCRTD:default_local_stdio_options.obj
 0002:0001a880       ___scrt_is_user_matherr_present 0042b880 f   MSVCRTD:matherr_detection.obj
 0002:0001a8b0       ___scrt_get_dyn_tls_init_callback 0042b8b0 f   MSVCRTD:dyn_tls_init.obj
 0002:0001a8c0       ___scrt_get_dyn_tls_dtor_callback 0042b8c0 f   MSVCRTD:dyn_tls_dtor.obj
 0002:0001a8d0       ___scrt_fastfail           0042b8d0 f   MSVCRTD:utility_desktop.obj
 0002:0001aa60       ___scrt_get_show_window_mode 0042ba60 f   MSVCRTD:utility_desktop.obj
 0002:0001aab0       ___scrt_initialize_mta     0042bab0 f   MSVCRTD:utility_desktop.obj
 0002:0001aac0       ___scrt_initialize_winrt   0042bac0 f   MSVCRTD:utility_desktop.obj
 0002:0001aad0       ___scrt_is_managed_app     0042bad0 f   MSVCRTD:utility_desktop.obj
 0002:0001ab80       ___scrt_set_unhandled_exception_filter 0042bb80 f   MSVCRTD:utility_desktop.obj
 0002:0001aba0       ___scrt_stub_for_initialize_mta 0042bba0 f   MSVCRTD:utility_desktop.obj
 0002:0001aba0       ___scrt_exe_initialize_mta 0042bba0 f   MSVCRTD:utility_desktop.obj
 0002:0001abb0       ___scrt_unhandled_exception_filter@4 0042bbb0 f   MSVCRTD:utility_desktop.obj
 0002:0001ac50       __crt_debugger_hook        0042bc50 f   MSVCRTD:utility_desktop.obj
 0002:0001ac70       __RTC_Initialize           0042bc70 f   MSVCRTD:initsect.obj
 0002:0001acb0       __RTC_Terminate            0042bcb0 f   MSVCRTD:initsect.obj
 0002:0001acf0       __except_handler4          0042bcf0 f   MSVCRTD:chandler4gs.obj
 0002:0001ad40       ___isa_available_init      0042bd40 f   MSVCRTD:cpu_disp.obj
 0002:0001b110       ___scrt_is_ucrt_dll_in_use 0042c110 f   MSVCRTD:ucrt_detection.obj
 0002:0001b6d0       ?_RTC_GetSrcLine@@YAHPAEPA_WKPAH1K@Z 0042c6d0 f   MSVCRTD:pdblkup.obj
 0002:0001bb30       __except_handler4_noexcept 0042cb30 f   MSVCRTD:chandler4_noexcept.obj
 0002:0001bba1       __purecall                 0042cba1 f   vcruntimed:VCRUNTIME140D.dll
 0002:0001bba7       _memcmp                    0042cba7 f   vcruntimed:VCRUNTIME140D.dll
 0002:0001bbad       _memcpy                    0042cbad f   vcruntimed:VCRUNTIME140D.dll
 0002:0001bbb3       _memmove                   0042cbb3 f   vcruntimed:VCRUNTIME140D.dll
 0002:0001bbb9       ___std_exception_copy      0042cbb9 f   vcruntimed:VCRUNTIME140D.dll
 0002:0001bbbf       ___std_exception_destroy   0042cbbf f   vcruntimed:VCRUNTIME140D.dll
 0002:0001bbc5       __CxxThrowException@8      0042cbc5 f   vcruntimed:VCRUNTIME140D.dll
 0002:0001bbcb       ___CxxFrameHandler3        0042cbcb f   vcruntimed:VCRUNTIME140D.dll
 0002:0001bbd1       _memset                    0042cbd1 f   vcruntimed:VCRUNTIME140D.dll
 0002:0001bbd7       _memchr                    0042cbd7 f   vcruntimed:VCRUNTIME140D.dll
 0002:0001bbdd       ___std_type_info_destroy_list 0042cbdd f   vcruntimed:VCRUNTIME140D.dll
 0002:0001bbe3       ___current_exception       0042cbe3 f   vcruntimed:VCRUNTIME140D.dll
 0002:0001bbe9       ___current_exception_context 0042cbe9 f   vcruntimed:VCRUNTIME140D.dll
 0002:0001bbef       __except_handler4_common   0042cbef f   vcruntimed:VCRUNTIME140D.dll
 0002:0001bbf5       ___vcrt_GetModuleFileNameW 0042cbf5 f   vcruntimed:VCRUNTIME140D.dll
 0002:0001bbfb       ___vcrt_GetModuleHandleW   0042cbfb f   vcruntimed:VCRUNTIME140D.dll
 0002:0001bc01       ___vcrt_LoadLibraryExW     0042cc01 f   vcruntimed:VCRUNTIME140D.dll
 0002:0001bc07       __invalid_parameter        0042cc07 f   ucrtd:ucrtbased.dll
 0002:0001bc0d       __CrtDbgReport             0042cc0d f   ucrtd:ucrtbased.dll
 0002:0001bc13       __get_stream_buffer_pointers 0042cc13 f   ucrtd:ucrtbased.dll
 0002:0001bc19       _fclose                    0042cc19 f   ucrtd:ucrtbased.dll
 0002:0001bc1f       _fflush                    0042cc1f f   ucrtd:ucrtbased.dll
 0002:0001bc25       _fgetc                     0042cc25 f   ucrtd:ucrtbased.dll
 0002:0001bc2b       _fgetpos                   0042cc2b f   ucrtd:ucrtbased.dll
 0002:0001bc31       _fputc                     0042cc31 f   ucrtd:ucrtbased.dll
 0002:0001bc37       _fread                     0042cc37 f   ucrtd:ucrtbased.dll
 0002:0001bc3d       _fsetpos                   0042cc3d f   ucrtd:ucrtbased.dll
 0002:0001bc43       __fseeki64                 0042cc43 f   ucrtd:ucrtbased.dll
 0002:0001bc49       _fwrite                    0042cc49 f   ucrtd:ucrtbased.dll
 0002:0001bc4f       _setvbuf                   0042cc4f f   ucrtd:ucrtbased.dll
 0002:0001bc55       _ungetc                    0042cc55 f   ucrtd:ucrtbased.dll
 0002:0001bc5b       __lock_file                0042cc5b f   ucrtd:ucrtbased.dll
 0002:0001bc61       __unlock_file              0042cc61 f   ucrtd:ucrtbased.dll
 0002:0001bc67       __errno                    0042cc67 f   ucrtd:ucrtbased.dll
 0002:0001bc6d       _strlen                    0042cc6d f   ucrtd:ucrtbased.dll
 0002:0001bc73       _strtod                    0042cc73 f   ucrtd:ucrtbased.dll
 0002:0001bc79       __free_dbg                 0042cc79 f   ucrtd:ucrtbased.dll
 0002:0001bc7f       __malloc_dbg               0042cc7f f   ucrtd:ucrtbased.dll
 0002:0001bc85       __callnewh                 0042cc85 f   ucrtd:ucrtbased.dll
 0002:0001bc8b       _malloc                    0042cc8b f   ucrtd:ucrtbased.dll
 0002:0001bc91       __CrtDbgReportW            0042cc91 f   ucrtd:ucrtbased.dll
 0002:0001bc97       __seh_filter_exe           0042cc97 f   ucrtd:ucrtbased.dll
 0002:0001bc9d       __set_app_type             0042cc9d f   ucrtd:ucrtbased.dll
 0002:0001bca3       ___setusermatherr          0042cca3 f   ucrtd:ucrtbased.dll
 0002:0001bca9       __configure_narrow_argv    0042cca9 f   ucrtd:ucrtbased.dll
 0002:0001bcaf       __initialize_narrow_environment 0042ccaf f   ucrtd:ucrtbased.dll
 0002:0001bcb5       __get_initial_narrow_environment 0042ccb5 f   ucrtd:ucrtbased.dll
 0002:0001bcbb       __initterm                 0042ccbb f   ucrtd:ucrtbased.dll
 0002:0001bcc1       __initterm_e               0042ccc1 f   ucrtd:ucrtbased.dll
 0002:0001bcc7       _exit                      0042ccc7 f   ucrtd:ucrtbased.dll
 0002:0001bccd       __exit                     0042cccd f   ucrtd:ucrtbased.dll
 0002:0001bcd3       __set_fmode                0042ccd3 f   ucrtd:ucrtbased.dll
 0002:0001bcd9       ___p___argc                0042ccd9 f   ucrtd:ucrtbased.dll
 0002:0001bcdf       ___p___argv                0042ccdf f   ucrtd:ucrtbased.dll
 0002:0001bce5       __cexit                    0042cce5 f   ucrtd:ucrtbased.dll
 0002:0001bceb       __c_exit                   0042cceb f   ucrtd:ucrtbased.dll
 0002:0001bcf1       __register_thread_local_exe_atexit_callback 0042ccf1 f   ucrtd:ucrtbased.dll
 0002:0001bcf7       __configthreadlocale       0042ccf7 f   ucrtd:ucrtbased.dll
 0002:0001bcfd       __set_new_mode             0042ccfd f   ucrtd:ucrtbased.dll
 0002:0001bd03       ___p__commode              0042cd03 f   ucrtd:ucrtbased.dll
 0002:0001bd09       __seh_filter_dll           0042cd09 f   ucrtd:ucrtbased.dll
 0002:0001bd0f       __initialize_onexit_table  0042cd0f f   ucrtd:ucrtbased.dll
 0002:0001bd15       __register_onexit_function 0042cd15 f   ucrtd:ucrtbased.dll
 0002:0001bd1b       __execute_onexit_table     0042cd1b f   ucrtd:ucrtbased.dll
 0002:0001bd21       __crt_atexit               0042cd21 f   ucrtd:ucrtbased.dll
 0002:0001bd27       __crt_at_quick_exit        0042cd27 f   ucrtd:ucrtbased.dll
 0002:0001bd2d       _strcpy_s                  0042cd2d f   ucrtd:ucrtbased.dll
 0002:0001bd33       _strcat_s                  0042cd33 f   ucrtd:ucrtbased.dll
 0002:0001bd39       ___stdio_common_vsprintf_s 0042cd39 f   ucrtd:ucrtbased.dll
 0002:0001bd3f       __controlfp_s              0042cd3f f   ucrtd:ucrtbased.dll
 0002:0001bd45       _terminate                 0042cd45 f   ucrtd:ucrtbased.dll
 0002:0001bd4b       __wmakepath_s              0042cd4b f   ucrtd:ucrtbased.dll
 0002:0001bd51       __wsplitpath_s             0042cd51 f   ucrtd:ucrtbased.dll
 0002:0001bd57       _wcscpy_s                  0042cd57 f   ucrtd:ucrtbased.dll
 0002:0001bd5d       _GetCurrentThreadId@0      0042cd5d f   kernel32:KERNEL32.dll
 0002:0001bd63       _IsDebuggerPresent@0       0042cd63 f   kernel32:KERNEL32.dll
 0002:0001bd69       _RaiseException@16         0042cd69 f   kernel32:KERNEL32.dll
 0002:0001bd6f       _MultiByteToWideChar@24    0042cd6f f   kernel32:KERNEL32.dll
 0002:0001bd75       _WideCharToMultiByte@32    0042cd75 f   kernel32:KERNEL32.dll
 0002:0001bd7b       _UnhandledExceptionFilter@4 0042cd7b f   kernel32:KERNEL32.dll
 0002:0001bd81       _SetUnhandledExceptionFilter@4 0042cd81 f   kernel32:KERNEL32.dll
 0002:0001bd87       _GetCurrentProcess@0       0042cd87 f   kernel32:KERNEL32.dll
 0002:0001bd8d       _TerminateProcess@8        0042cd8d f   kernel32:KERNEL32.dll
 0002:0001bd93       _IsProcessorFeaturePresent@4 0042cd93 f   kernel32:KERNEL32.dll
 0002:0001bd99       _QueryPerformanceCounter@4 0042cd99 f   kernel32:KERNEL32.dll
 0002:0001bd9f       _GetCurrentProcessId@0     0042cd9f f   kernel32:KERNEL32.dll
 0002:0001bda5       _GetSystemTimeAsFileTime@4 0042cda5 f   kernel32:KERNEL32.dll
 0002:0001bdab       _InitializeSListHead@4     0042cdab f   kernel32:KERNEL32.dll
 0002:0001bdb1       _GetStartupInfoW@4         0042cdb1 f   kernel32:KERNEL32.dll
 0002:0001bdb7       _GetModuleHandleW@4        0042cdb7 f   kernel32:KERNEL32.dll
 0002:0001bdbd       _GetLastError@0            0042cdbd f   kernel32:KERNEL32.dll
 0002:0001bdc3       _HeapAlloc@12              0042cdc3 f   kernel32:KERNEL32.dll
 0002:0001bdc9       _HeapFree@12               0042cdc9 f   kernel32:KERNEL32.dll
 0002:0001bdcf       _GetProcessHeap@0          0042cdcf f   kernel32:KERNEL32.dll
 0002:0001bdd5       _VirtualQuery@12           0042cdd5 f   kernel32:KERNEL32.dll
 0002:0001bddb       _FreeLibrary@4             0042cddb f   kernel32:KERNEL32.dll
 0002:0001bde1       _GetProcAddress@8          0042cde1 f   kernel32:KERNEL32.dll
 0002:0001bdf0       ___scrt_stub_for_acrt_initialize 0042cdf0 f   MSVCRTD:ucrt_stubs.obj
 0002:0001bdf0       ___acrt_initialize         0042cdf0 f   MSVCRTD:ucrt_stubs.obj
 0002:0001bdf0       ___vcrt_initialize         0042cdf0 f   MSVCRTD:ucrt_stubs.obj
 0002:0001be00       ___acrt_thread_attach      0042ce00 f   MSVCRTD:ucrt_stubs.obj
 0002:0001be00       ___vcrt_thread_attach      0042ce00 f   MSVCRTD:ucrt_stubs.obj
 0002:0001be00       ___scrt_stub_for_acrt_thread_attach 0042ce00 f   MSVCRTD:ucrt_stubs.obj
 0002:0001be10       ___scrt_stub_for_acrt_thread_detach 0042ce10 f   MSVCRTD:ucrt_stubs.obj
 0002:0001be10       ___vcrt_thread_detach      0042ce10 f   MSVCRTD:ucrt_stubs.obj
 0002:0001be10       ___acrt_thread_detach      0042ce10 f   MSVCRTD:ucrt_stubs.obj
 0002:0001be20       ___acrt_uninitialize       0042ce20 f   MSVCRTD:ucrt_stubs.obj
 0002:0001be20       ___vcrt_uninitialize       0042ce20 f   MSVCRTD:ucrt_stubs.obj
 0002:0001be20       ___scrt_stub_for_acrt_uninitialize 0042ce20 f   MSVCRTD:ucrt_stubs.obj
 0002:0001be30       ___acrt_uninitialize_critical 0042ce30 f   MSVCRTD:ucrt_stubs.obj
 0002:0001be30       ___scrt_stub_for_acrt_uninitialize_critical 0042ce30 f   MSVCRTD:ucrt_stubs.obj
 0002:0001be30       ___vcrt_uninitialize_critical 0042ce30 f   MSVCRTD:ucrt_stubs.obj
 0002:0001be40       __is_c_termination_complete 0042ce40 f   MSVCRTD:ucrt_stubs.obj
 0002:0001be40       ___scrt_stub_for_is_c_termination_complete 0042ce40 f   MSVCRTD:ucrt_stubs.obj
 0002:0001be50       __filter_x86_sse2_floating_point_exception_default 0042ce50 f   MSVCRTD:x86_exception_filter.obj
 0002:0001be50       __filter_x86_sse2_floating_point_exception 0042ce50 f   MSVCRTD:x86_exception_filter.obj
 0002:0001bf90       ?transaction@Manager@@QAEXXZ 0042cf90 f i Source.obj
 0003:00000000       ___xc_a                    00434000     MSVCRTD:initializers.obj
 0003:0000030c       ___xc_z                    0043430c     MSVCRTD:initializers.obj
 0003:00000410       ___xi_a                    00434410     MSVCRTD:initializers.obj
 0003:0000071c       ___xi_z                    0043471c     MSVCRTD:initializers.obj
 0003:00000820       ___xp_a                    00434820     MSVCRTD:initializers.obj
 0003:00000924       ___xp_z                    00434924     MSVCRTD:initializers.obj
 0003:00000a28       ___xt_a                    00434a28     MSVCRTD:initializers.obj
 0003:00000b2c       ___xt_z                    00434b2c     MSVCRTD:initializers.obj
 0003:00000c38       ??_7exception@std@@6B@     00434c38     Source.obj
 0003:00000c44       ??_C@_0BC@EOODALEL@Unknown?5exception@ 00434c44     Source.obj
 0003:00000c60       ??_7bad_alloc@std@@6B@     00434c60     Source.obj
 0003:00000c70       ??_7bad_array_new_length@std@@6B@ 00434c70     Source.obj
 0003:00000c7c       ??_C@_0BF@KINCDENJ@bad?5array?5new?5length@ 00434c7c     Source.obj
 0003:00000c98       ??_C@_0BB@FCMFBGOM@invalid?5argument@ 00434c98     Source.obj
 0003:00000cac       ??_C@_02DKCKIIND@?$CFs@    00434cac     Source.obj
 0003:00000cb0       ??_C@_0GI@FJIKDGOA@C?3?2Program?5Files?5?$CIx86?$CJ?2Microsof@ 00434cb0     Source.obj
 0003:00000d30       ??_C@_1NA@CDBIFGMM@?$AAC?$AA?3?$AA?2?$AAP?$AAr?$AAo?$AAg?$AAr?$AAa?$AAm?$AA?5?$AAF?$AAi?$AAl?$AAe@ 00434d30     Source.obj
 0003:00000e30       ??_C@_1EK@NIFDJFDG@?$AAs?$AAt?$AAd?$AA?3?$AA?3?$AA_?$AAA?$AAd?$AAj?$AAu?$AAs?$AAt?$AA_?$AAm?$AAa@ 00434e30     Source.obj
 0003:00000e88       ??_C@_1CG@JNLFBNGN@?$AA?$CC?$AAi?$AAn?$AAv?$AAa?$AAl?$AAi?$AAd?$AA?5?$AAa?$AAr?$AAg?$AAu?$AAm?$AAe@ 00434e88     Source.obj
 0003:00000eb8       ??_C@_0BJ@LFDBABJJ@ITERATOR?5LIST?5CORRUPTED?$CB@ 00434eb8     Source.obj
 0003:00000ed8       ??_C@_1EE@KLDMFDFL@?$AAs?$AAt?$AAd?$AA?3?$AA?3?$AA_?$AAI?$AAt?$AAe?$AAr?$AAa?$AAt?$AAo?$AAr?$AA_@ 00434ed8     Source.obj
 0003:00000f2c       ??_C@_1DG@PLBPCAEM@?$AA?$CC?$AAI?$AAT?$AAE?$AAR?$AAA?$AAT?$AAO?$AAR?$AA?5?$AAL?$AAI?$AAS?$AAT?$AA?5@ 00434f2c     Source.obj
 0003:00000f6c       ??_C@_0BG@LNNHAOEF@invalid?5stod?5argument@ 00434f6c     Source.obj
 0003:00000f88       ??_C@_0BL@PPHDABKE@stod?5argument?5out?5of?5range@ 00434f88     Source.obj
 0003:00000fac       ??_7runtime_error@std@@6B@ 00434fac     Source.obj
 0003:00000fbc       ??_7bad_cast@std@@6B@      00434fbc     Source.obj
 0003:00000fc8       ??_C@_08EPJLHIJG@bad?5cast@ 00434fc8     Source.obj
 0003:00000fd4       ??_C@_01GFHCPBMG@C@        00434fd4     Source.obj
 0003:00000fdc       ??_7Account@@6B@           00434fdc     Source.obj
 0003:00000fec       ??_7SimpleAcc@@6B@         00434fec     Source.obj
 0003:00000ffc       ??_7BonusAcc@@6B@          00434ffc     Source.obj
 0003:0000100c       ??_7ServiceAcc@@6B@        0043500c     Source.obj
 0003:0000101c       ??_7BalancedAcc@@6B@       0043501c     Source.obj
 0003:00001028       ??_C@_0BB@GCADKGJO@map?1set?5too?5long@ 00435028     Source.obj
 0003:00001040       ??_7?$basic_filebuf@DU?$char_traits@D@std@@@std@@6B@ 00435040     Source.obj
 0003:0000108c       ??_7?$basic_ifstream@DU?$char_traits@D@std@@@std@@6B@ 0043508c     Source.obj
 0003:00001094       ??_8?$basic_ifstream@DU?$char_traits@D@std@@@std@@7B@ 00435094     Source.obj
 0003:000010a4       ??_7?$basic_ofstream@DU?$char_traits@D@std@@@std@@6B@ 004350a4     Source.obj
 0003:000010ac       ??_8?$basic_ofstream@DU?$char_traits@D@std@@@std@@7B@ 004350ac     Source.obj
 0003:000010b8       ??_C@_01FHEEJDEE@A@        004350b8     Source.obj
 0003:000010bc       ??_C@_01HMGJMAIH@B@        004350bc     Source.obj
 0003:000010c0       ??_C@_01CKDDGHAB@D@        004350c0     Source.obj
 0003:000010c4       ??_C@_01MMEEDKFM@X@        004350c4     Source.obj
 0003:000010c8       ??_C@_0CC@KIIFEHNJ@Input?5stream?5could?5not?5be?5opene@ 004350c8     Source.obj
 0003:000010f0       ??_C@_0CD@BGODOFFG@Output?5stream?5could?5not?5be?5open@ 004350f0     Source.obj
 0003:0000111c       ??_C@_0BF@EJHMNGAN@String?5is?5too?5small?4@ 0043511c     Source.obj
 0003:00001138       ??_C@_0BD@BLEJPKFA@String?5is?5too?5big?4@ 00435138     Source.obj
 0003:00001150       ??_C@_0N@MLIENLGI@invalid?5type@ 00435150     Source.obj
 0003:00001160       ??_C@_0BC@PMJBALKE@account?5not?5found@ 00435160     Source.obj
 0003:00001178       ??_C@_0CE@NJHAGEDK@C?3?1Users?1Tyler?1Desktop?1account2@ 00435178     Source.obj
 0003:000011a4       ??_C@_0CE@IBAJCCII@C?3?1Users?1Tyler?1Desktop?1transact@ 004351a4     Source.obj
 0003:000011d0       ??_C@_0CC@HKCIIJIJ@C?3?1Users?1Tyler?1Desktop?1update?4d@ 004351d0     Source.obj
 0003:000011f8       ??_C@_0CC@JOIGPMIN@C?3?1Users?1Tyler?1Desktop?1report?4t@ 004351f8     Source.obj
 0003:00001220       ??_C@_0CD@DPFEPBJO@C?3?1Users?1Tyler?1Desktop?1account?4@ 00435220     Source.obj
 0003:00001250       ??_C@_0GJ@GDKIGMBO@C?3?2Program?5Files?5?$CIx86?$CJ?2Microsof@ 00435250     Source.obj
 0003:000012d0       ??_C@_0GI@KAEHDKAJ@C?3?2Program?5Files?5?$CIx86?$CJ?2Microsof@ 004352d0     Source.obj
 0003:00001350       ??_C@_1NA@MNJEKPBN@?$AAC?$AA?3?$AA?2?$AAP?$AAr?$AAo?$AAg?$AAr?$AAa?$AAm?$AA?5?$AAF?$AAi?$AAl?$AAe@ 00435350     Source.obj
 0003:0000144c       ??_C@_0BP@OLDKBHLM@map?1set?5iterators?5incompatible@ 0043544c     Source.obj
 0003:00001478       ??_C@_0GG@OCININGN@C?3?2Program?5Files?5?$CIx86?$CJ?2Microsof@ 00435478     Source.obj
 0003:000014f8       ??_C@_1MM@HFHBGPEE@?$AAC?$AA?3?$AA?2?$AAP?$AAr?$AAo?$AAg?$AAr?$AAa?$AAm?$AA?5?$AAF?$AAi?$AAl?$AAe@ 004354f8     Source.obj
 0003:000015f0       ??_C@_1BME@PLEAJDAP@?$AAs?$AAt?$AAd?$AA?3?$AA?3?$AA_?$AAT?$AAr?$AAe?$AAe?$AA_?$AAc?$AAo?$AAn?$AAs@ 004355f0     Source.obj
 0003:00001810       ??_C@_1EC@JLIDLCDH@?$AA?$CC?$AAm?$AAa?$AAp?$AA?1?$AAs?$AAe?$AAt?$AA?5?$AAi?$AAt?$AAe?$AAr?$AAa?$AAt@ 00435810     Source.obj
 0003:00001860       ??_C@_0DE@DMNPKCGM@cannot?5increment?5value?9initiali@ 00435860     Source.obj
 0003:000018a0       ??_C@_1BME@FLLNHKMK@?$AAs?$AAt?$AAd?$AA?3?$AA?3?$AA_?$AAT?$AAr?$AAe?$AAe?$AA_?$AAc?$AAo?$AAn?$AAs@ 004358a0     Source.obj
 0003:00001ac0       ??_C@_1GM@BJMCGEGI@?$AA?$CC?$AAc?$AAa?$AAn?$AAn?$AAo?$AAt?$AA?5?$AAi?$AAn?$AAc?$AAr?$AAe?$AAm?$AAe@ 00435ac0     Source.obj
 0003:00001b44       ??_C@_0CG@NLEHEOHN@cannot?5increment?5end?5map?1set?5it@ 00435b44     Source.obj
 0003:00001b78       ??_C@_1FA@KLFCDGNE@?$AA?$CC?$AAc?$AAa?$AAn?$AAn?$AAo?$AAt?$AA?5?$AAi?$AAn?$AAc?$AAr?$AAe?$AAm?$AAe@ 00435b78     Source.obj
 0003:00001bd8       ??_C@_0BP@PFIPNLNI@front?$CI?$CJ?5called?5on?5empty?5string@ 00435bd8     Source.obj
 0003:00001c00       ??_C@_1LC@BJDDPGPA@?$AAs?$AAt?$AAd?$AA?3?$AA?3?$AAb?$AAa?$AAs?$AAi?$AAc?$AA_?$AAs?$AAt?$AAr?$AAi@ 00435c00     Source.obj
 0003:00001cd8       ??_C@_1EC@DINNLDHA@?$AA?$CC?$AAf?$AAr?$AAo?$AAn?$AAt?$AA?$CI?$AA?$CJ?$AA?5?$AAc?$AAa?$AAl?$AAl?$AAe?$AAd@ 00435cd8     Source.obj
 0003:00001d28       ??_C@_0DG@LCFNIIPB@cannot?5dereference?5value?9initia@ 00435d28     Source.obj
 0003:00001d68       ??_C@_1BMC@BMHHPMBB@?$AAs?$AAt?$AAd?$AA?3?$AA?3?$AA_?$AAT?$AAr?$AAe?$AAe?$AA_?$AAc?$AAo?$AAn?$AAs@ 00435d68     Source.obj
 0003:00001f88       ??_C@_1HA@ILGCNILF@?$AA?$CC?$AAc?$AAa?$AAn?$AAn?$AAo?$AAt?$AA?5?$AAd?$AAe?$AAr?$AAe?$AAf?$AAe?$AAr@ 00435f88     Source.obj
 0003:00002010       ??_C@_0CI@OKFEHCEB@cannot?5dereference?5end?5map?1set?5@ 00436010     Source.obj
 0003:00002040       ??_C@_1FE@NKHAAGMB@?$AA?$CC?$AAc?$AAa?$AAn?$AAn?$AAo?$AAt?$AA?5?$AAd?$AAe?$AAr?$AAe?$AAf?$AAe?$AAr@ 00436040     Source.obj
 0003:000020a4       ??_C@_0BI@CFPLBAOH@invalid?5string?5position@ 004360a4     Source.obj
 0003:000020c0       ??_C@_0BA@JFNIOLAK@string?5too?5long@ 004360c0     Source.obj
 0003:000020d8       ??_C@_1NC@OIIHGCJJ@?$AAC?$AA?3?$AA?2?$AAP?$AAr?$AAo?$AAg?$AAr?$AAa?$AAm?$AA?5?$AAF?$AAi?$AAl?$AAe@ 004360d8     Source.obj
 0003:000021d4       ??_C@_0BD@FEEMDEPI@invalid?5comparator@ 004361d4     Source.obj
 0003:000021ec       ??_C@_1CI@JONCLBEJ@?$AAs?$AAt?$AAd?$AA?3?$AA?3?$AA_?$AAD?$AAe?$AAb?$AAu?$AAg?$AA_?$AAl?$AAt?$AA_@ 004361ec     Source.obj
 0003:0000221c       ??_C@_1CK@NDNHPKPI@?$AA?$CC?$AAi?$AAn?$AAv?$AAa?$AAl?$AAi?$AAd?$AA?5?$AAc?$AAo?$AAm?$AAp?$AAa?$AAr@ 0043621c     Source.obj
 0003:00002250       ??_C@_1EO@GFNCMDLA@?$AAs?$AAt?$AAd?$AA?3?$AA?3?$AA_?$AAA?$AAl?$AAl?$AAo?$AAc?$AAa?$AAt?$AAe?$AA_@ 00436250     Source.obj
 0003:000022b0       __real@3ff07ae147ae147b    004362b0     Source.obj
 0003:000022c0       __real@3ff0a3d70a3d70a4    004362c0     Source.obj
 0003:000022d0       __real@3ff0cccccccccccd    004362d0     Source.obj
 0003:000022e0       __real@3ff0f5c28f5c28f6    004362e0     Source.obj
 0003:000022f0       __real@4014000000000000    004362f0     Source.obj
 0003:00002300       __real@407f400000000000    00436300     Source.obj
 0003:00002310       __real@40b3880000000000    00436310     Source.obj
 0003:0000231c       ??_C@_05IPFBAFCA@?5?7?6?$AN?$AM@ 0043631c     StaticLib:trim.obj
 0003:00002324       ??_C@_0DN@OMOEBPJE@d?3?2agent?2_work?24?2s?2src?2vctools?2@ 00436324     msvcprtd:locale0_implib.obj
 0003:00002374       ??_7type_info@@6B@         00436374     MSVCRTD:std_type_info_static.obj
 0003:0000237c       ??_C@_0P@GHFPNOJB@bad?5allocation@ 0043637c     MSVCRTD:throw_bad_alloc.obj
 0003:00002450       ??_C@_0NN@JMPELKLB@The?5value?5of?5ESP?5was?5not?5proper@ 00436450     MSVCRTD:error.obj
 0003:00002560       ??_C@_0BBN@ELNNILBE@A?5cast?5to?5a?5smaller?5data?5type?5h@ 00436560     MSVCRTD:error.obj
 0003:000026b8       ??_C@_0BN@BPOGFMJL@Stack?5memory?5was?5corrupted?$AN?6@ 004366b8     MSVCRTD:error.obj
 0003:000026dc       ??_C@_0DG@DAJCDLPN@A?5local?5variable?5was?5used?5befor@ 004366dc     MSVCRTD:error.obj
 0003:0000271c       ??_C@_0CM@JMIDGKLA@Stack?5memory?5around?5_alloca?5was@ 0043671c     MSVCRTD:error.obj
 0003:00002750       ??_C@_0BO@CHIONIOI@Unknown?5Runtime?5Check?5Error?$AN?6@ 00436750     MSVCRTD:error.obj
 0003:00002778       ??_C@_1GM@CNOOJIHC@?$AAR?$AAu?$AAn?$AAt?$AAi?$AAm?$AAe?$AA?5?$AAC?$AAh?$AAe?$AAc?$AAk?$AA?5?$AAE@ 00436778     MSVCRTD:error.obj
 0003:00002800       ??_C@_1EA@NFKNIFJP@?$AAR?$AAu?$AAn?$AA?9?$AAT?$AAi?$AAm?$AAe?$AA?5?$AAC?$AAh?$AAe?$AAc?$AAk?$AA?5@ 00436800     MSVCRTD:error.obj
 0003:0000284c       ??_C@_0BB@PFFGGCJP@Unknown?5Filename@ 0043684c     MSVCRTD:error.obj
 0003:00002860       ??_C@_0BE@GNBOBNCK@Unknown?5Module?5Name@ 00436860     MSVCRTD:error.obj
 0003:00002878       ??_C@_0CA@IODNCDPG@Run?9Time?5Check?5Failure?5?$CD?$CFd?5?9?5?$CFs@ 00436878     MSVCRTD:error.obj
 0003:000028a0       ??_C@_0CG@IAFNJNEE@Stack?5corrupted?5near?5unknown?5va@ 004368a0     MSVCRTD:error.obj
 0003:000028d0       ??_C@_05MKKEDADM@?$CF?42X?5@ 004368d0     MSVCRTD:error.obj
 0003:000028d8       ??_C@_0EJ@LJKNEOLN@Stack?5area?5around?5_alloca?5memor@ 004368d8     MSVCRTD:error.obj
 0003:00002930       ??_C@_01EEMJAFIK@?6@       00436930     MSVCRTD:error.obj
 0003:00002934       ??_C@_02LLMPMKNF@?$DO?5@   00436934     MSVCRTD:error.obj
 0003:00002938       ??_C@_08OMAHNMHJ@?6Data?3?5?$DM@ 00436938     MSVCRTD:error.obj
 0003:00002944       ??_C@_0CK@DKGBICFE@?6Allocation?5number?5within?5this?5@ 00436944     MSVCRTD:error.obj
 0003:00002978       ??_C@_07DFDJCKFN@?6Size?3?5@ 00436978     MSVCRTD:error.obj
 0003:00002984       ??_C@_0N@MHFFIMFG@?6Address?3?50x@ 00436984     MSVCRTD:error.obj
 0003:00002998       ??_C@_0EI@CLEPFNGI@Stack?5area?5around?5_alloca?5memor@ 00436998     MSVCRTD:error.obj
 0003:000029f0       ??_C@_0BK@ODNDAGKB@?$CFs?$CFs?$CFp?$CFs?$CFzd?$CFs?$CFd?$CFs?$CFs?$CFs?$CFs?$CFs@ 004369f0     MSVCRTD:error.obj
 0003:00002a10       ??_C@_0DE@OHJBPMBP@A?5variable?5is?5being?5used?5withou@ 00436a10     MSVCRTD:error.obj
 0003:00002a74       ??_C@_0BJ@HEGAHDFO@Stack?5pointer?5corruption@ 00436a74     MSVCRTD:userapi.obj
 0003:00002a94       ??_C@_0CK@FEGOIOPB@Cast?5to?5smaller?5type?5causing?5lo@ 00436a94     MSVCRTD:userapi.obj
 0003:00002ac8       ??_C@_0BI@CIGMDCBH@Stack?5memory?5corruption@ 00436ac8     MSVCRTD:userapi.obj
 0003:00002ae4       ??_C@_0CK@CNLNOEPB@Local?5variable?5used?5before?5init@ 00436ae4     MSVCRTD:userapi.obj
 0003:00002b18       ??_C@_0BP@OGBCLIBO@Stack?5around?5_alloca?5corrupted@ 00436b18     MSVCRTD:userapi.obj
 0003:00002b98       ??_C@_1EI@MLPKHBGE@?$AAa?$AAp?$AAi?$AA?9?$AAm?$AAs?$AA?9?$AAw?$AAi?$AAn?$AA?9?$AAc?$AAo?$AAr?$AAe@ 00436b98     MSVCRTD:pdblkup.obj
 0003:00002bf0       ??_C@_1BK@JHLNAEJL@?$AAa?$AAd?$AAv?$AAa?$AAp?$AAi?$AA3?$AA2?$AA?4?$AAd?$AAl?$AAl@ 00436bf0     MSVCRTD:pdblkup.obj
 0003:00002c10       ??_C@_0O@COHOBMLB@RegOpenKeyExW@ 00436c10     MSVCRTD:pdblkup.obj
 0003:00002c20       ??_C@_0BB@GLNAEDBD@RegQueryValueExW@ 00436c20     MSVCRTD:pdblkup.obj
 0003:00002c34       ??_C@_0M@HLOHPNFA@RegCloseKey@ 00436c34     MSVCRTD:pdblkup.obj
 0003:00002c48       ??_C@_1HE@EBEAGLFB@?$AAS?$AAO?$AAF?$AAT?$AAW?$AAA?$AAR?$AAE?$AA?2?$AAW?$AAo?$AAw?$AA6?$AA4?$AA3@ 00436c48     MSVCRTD:pdblkup.obj
 0003:00002cd4       ??_C@_1BG@EABPBLLF@?$AAP?$AAr?$AAo?$AAd?$AAu?$AAc?$AAt?$AAD?$AAi?$AAr@ 00436cd4     MSVCRTD:pdblkup.obj
 0003:00002d14       ??_C@_1BC@JINFINNJ@?$AAM?$AAS?$AAP?$AAD?$AAB?$AA1?$AA4?$AA0@ 00436d14     MSVCRTD:pdblkup.obj
 0003:00002d2c       ??_C@_0BB@KCIACLNC@PDBOpenValidate5@ 00436d2c     MSVCRTD:pdblkup.obj
 0003:00002d40       ??_C@_01KDCPPGHE@r@        00436d40     MSVCRTD:pdblkup.obj
 0003:00002d88       __load_config_used         00436d88     MSVCRTD:loadcfg.obj
 0003:00002fd4       ??_R4?$basic_filebuf@DU?$char_traits@D@std@@@std@@6B@ 00436fd4     Source.obj
 0003:00002fec       ??_R3?$basic_filebuf@DU?$char_traits@D@std@@@std@@8 00436fec     Source.obj
 0003:00003000       ??_R2?$basic_filebuf@DU?$char_traits@D@std@@@std@@8 00437000     Source.obj
 0003:0000300c       ??_R1A@?0A@EA@?$basic_filebuf@DU?$char_traits@D@std@@@std@@8 0043700c     Source.obj
 0003:00003030       ??_R1A@?0A@EA@?$basic_streambuf@DU?$char_traits@D@std@@@std@@8 00437030     Source.obj
 0003:00003054       ??_R3?$basic_streambuf@DU?$char_traits@D@std@@@std@@8 00437054     Source.obj
 0003:00003068       ??_R2?$basic_streambuf@DU?$char_traits@D@std@@@std@@8 00437068     Source.obj
 0003:00003070       ??_R4?$basic_ifstream@DU?$char_traits@D@std@@@std@@6B@ 00437070     Source.obj
 0003:00003088       ??_R3?$basic_ifstream@DU?$char_traits@D@std@@@std@@8 00437088     Source.obj
 0003:0000309c       ??_R2?$basic_ifstream@DU?$char_traits@D@std@@@std@@8 0043709c     Source.obj
 0003:000030b8       ??_R1A@?0A@EA@?$basic_ifstream@DU?$char_traits@D@std@@@std@@8 004370b8     Source.obj
 0003:000030dc       ??_R1A@?0A@EA@?$basic_istream@DU?$char_traits@D@std@@@std@@8 004370dc     Source.obj
 0003:00003100       ??_R3?$basic_istream@DU?$char_traits@D@std@@@std@@8 00437100     Source.obj
 0003:00003114       ??_R2?$basic_istream@DU?$char_traits@D@std@@@std@@8 00437114     Source.obj
 0003:00003128       ??_R1A@A@3FA@?$basic_ios@DU?$char_traits@D@std@@@std@@8 00437128     Source.obj
 0003:0000314c       ??_R3?$basic_ios@DU?$char_traits@D@std@@@std@@8 0043714c     Source.obj
 0003:00003160       ??_R2?$basic_ios@DU?$char_traits@D@std@@@std@@8 00437160     Source.obj
 0003:00003170       ??_R1A@?0A@EA@?$basic_ios@DU?$char_traits@D@std@@@std@@8 00437170     Source.obj
 0003:00003194       ??_R1A@?0A@EA@ios_base@std@@8 00437194     Source.obj
 0003:000031b8       ??_R3ios_base@std@@8       004371b8     Source.obj
 0003:000031cc       ??_R2ios_base@std@@8       004371cc     Source.obj
 0003:000031d8       ??_R17?0A@EA@?$_Iosb@H@std@@8 004371d8     Source.obj
 0003:000031fc       ??_R3?$_Iosb@H@std@@8      004371fc     Source.obj
 0003:00003210       ??_R2?$_Iosb@H@std@@8      00437210     Source.obj
 0003:00003218       ??_R1A@?0A@EA@?$_Iosb@H@std@@8 00437218     Source.obj
 0003:0000323c       ??_R1A@A@3EA@ios_base@std@@8 0043723c     Source.obj
 0003:00003260       ??_R17A@3EA@?$_Iosb@H@std@@8 00437260     Source.obj
 0003:00003284       ??_R4?$basic_ofstream@DU?$char_traits@D@std@@@std@@6B@ 00437284     Source.obj
 0003:0000329c       ??_R3?$basic_ofstream@DU?$char_traits@D@std@@@std@@8 0043729c     Source.obj
 0003:000032b0       ??_R2?$basic_ofstream@DU?$char_traits@D@std@@@std@@8 004372b0     Source.obj
 0003:000032cc       ??_R1A@?0A@EA@?$basic_ofstream@DU?$char_traits@D@std@@@std@@8 004372cc     Source.obj
 0003:000032f0       ??_R1A@?0A@EA@?$basic_ostream@DU?$char_traits@D@std@@@std@@8 004372f0     Source.obj
 0003:00003314       ??_R3?$basic_ostream@DU?$char_traits@D@std@@@std@@8 00437314     Source.obj
 0003:00003328       ??_R2?$basic_ostream@DU?$char_traits@D@std@@@std@@8 00437328     Source.obj
 0003:0000333c       ??_R4exception@std@@6B@    0043733c     Source.obj
 0003:00003354       ??_R3exception@std@@8      00437354     Source.obj
 0003:00003368       ??_R2exception@std@@8      00437368     Source.obj
 0003:00003370       ??_R1A@?0A@EA@exception@std@@8 00437370     Source.obj
 0003:00003394       ??_R4bad_alloc@std@@6B@    00437394     Source.obj
 0003:000033ac       ??_R3bad_alloc@std@@8      004373ac     Source.obj
 0003:000033c0       ??_R2bad_alloc@std@@8      004373c0     Source.obj
 0003:000033cc       ??_R1A@?0A@EA@bad_alloc@std@@8 004373cc     Source.obj
 0003:000033f0       ??_R4bad_array_new_length@std@@6B@ 004373f0     Source.obj
 0003:00003408       ??_R3bad_array_new_length@std@@8 00437408     Source.obj
 0003:0000341c       ??_R2bad_array_new_length@std@@8 0043741c     Source.obj
 0003:0000342c       ??_R1A@?0A@EA@bad_array_new_length@std@@8 0043742c     Source.obj
 0003:00003450       ??_R4runtime_error@std@@6B@ 00437450     Source.obj
 0003:00003468       ??_R3runtime_error@std@@8  00437468     Source.obj
 0003:0000347c       ??_R2runtime_error@std@@8  0043747c     Source.obj
 0003:00003488       ??_R1A@?0A@EA@runtime_error@std@@8 00437488     Source.obj
 0003:000034ac       ??_R4bad_cast@std@@6B@     004374ac     Source.obj
 0003:000034c4       ??_R3bad_cast@std@@8       004374c4     Source.obj
 0003:000034d8       ??_R2bad_cast@std@@8       004374d8     Source.obj
 0003:000034e4       ??_R1A@?0A@EA@bad_cast@std@@8 004374e4     Source.obj
 0003:00003508       ??_R4Account@@6B@          00437508     Source.obj
 0003:00003520       ??_R3Account@@8            00437520     Source.obj
 0003:00003534       ??_R2Account@@8            00437534     Source.obj
 0003:0000353c       ??_R1A@?0A@EA@Account@@8   0043753c     Source.obj
 0003:00003560       ??_R4SimpleAcc@@6B@        00437560     Source.obj
 0003:00003578       ??_R3SimpleAcc@@8          00437578     Source.obj
 0003:0000358c       ??_R2SimpleAcc@@8          0043758c     Source.obj
 0003:00003598       ??_R1A@?0A@EA@SimpleAcc@@8 00437598     Source.obj
 0003:000035bc       ??_R4BonusAcc@@6B@         004375bc     Source.obj
 0003:000035d4       ??_R3BonusAcc@@8           004375d4     Source.obj
 0003:000035e8       ??_R2BonusAcc@@8           004375e8     Source.obj
 0003:000035f4       ??_R1A@?0A@EA@BonusAcc@@8  004375f4     Source.obj
 0003:00003618       ??_R4ServiceAcc@@6B@       00437618     Source.obj
 0003:00003630       ??_R3ServiceAcc@@8         00437630     Source.obj
 0003:00003644       ??_R2ServiceAcc@@8         00437644     Source.obj
 0003:00003650       ??_R1A@?0A@EA@ServiceAcc@@8 00437650     Source.obj
 0003:00003674       ??_R4BalancedAcc@@6B@      00437674     Source.obj
 0003:0000368c       ??_R3BalancedAcc@@8        0043768c     Source.obj
 0003:000036a0       ??_R2BalancedAcc@@8        004376a0     Source.obj
 0003:000036ac       ??_R1A@?0A@EA@BalancedAcc@@8 004376ac     Source.obj
 0003:000036d0       ??_R4type_info@@6B@        004376d0     MSVCRTD:std_type_info_static.obj
 0003:000036e8       ??_R3type_info@@8          004376e8     MSVCRTD:std_type_info_static.obj
 0003:000036fc       ??_R2type_info@@8          004376fc     MSVCRTD:std_type_info_static.obj
 0003:00003704       ??_R1A@?0A@EA@type_info@@8 00437704     MSVCRTD:std_type_info_static.obj
 0003:000039e0       ___rtc_iaa                 004379e0     MSVCRTD:initsect.obj
 0003:00003bf0       ___rtc_izz                 00437bf0     MSVCRTD:initsect.obj
 0003:00003cf4       ___rtc_taa                 00437cf4     MSVCRTD:initsect.obj
 0003:00003f04       ___rtc_tzz                 00437f04     MSVCRTD:initsect.obj
 0003:000061b0       __TI3?AVbad_array_new_length@std@@ 0043a1b0     Source.obj
 0003:000061c4       __CTA3?AVbad_array_new_length@std@@ 0043a1c4     Source.obj
 0003:000061d8       __CT??_R0?AVbad_array_new_length@std@@@8??0bad_array_new_length@std@@QAE@ABV01@@Z12 0043a1d8     Source.obj
 0003:000061f8       __CT??_R0?AVbad_alloc@std@@@8??0bad_alloc@std@@QAE@ABV01@@Z12 0043a1f8     Source.obj
 0003:00006218       __CT??_R0?AVexception@std@@@8??0exception@std@@QAE@ABV01@@Z12 0043a218     Source.obj
 0003:00006238       __CT??_R0?AVruntime_error@std@@@8??0runtime_error@std@@QAE@ABV01@@Z12 0043a238     Source.obj
 0003:00006258       __TI2?AVbad_cast@std@@     0043a258     Source.obj
 0003:0000626c       __CTA2?AVbad_cast@std@@    0043a26c     Source.obj
 0003:0000627c       __CT??_R0?AVbad_cast@std@@@8??0bad_cast@std@@QAE@ABV01@@Z12 0043a27c     Source.obj
 0003:0000629c       __TI2?AVruntime_error@std@@ 0043a29c     Source.obj
 0003:000062b0       __CTA2?AVruntime_error@std@@ 0043a2b0     Source.obj
 0003:00006448       __TI2?AVbad_alloc@std@@    0043a448     MSVCRTD:throw_bad_alloc.obj
 0003:0000645c       __CTA2?AVbad_alloc@std@@   0043a45c     MSVCRTD:throw_bad_alloc.obj
 0004:00000000       ?__LINE__Var@?0??_Adjust_manually_vector_aligned@std@@YAXAAPAXAAI@Z@4JA 0043b000     Source.obj
 0004:00000004       ___security_cookie_complement 0043b004     MSVCRTD:gs_cookie.obj
 0004:00000008       ___security_cookie         0043b008     MSVCRTD:gs_cookie.obj
 0004:00000010       __fltused                  0043b010     MSVCRTD:fltused.obj
 0004:00000014       ___scrt_native_dllmain_reason 0043b014     MSVCRTD:utility.obj
 0004:00000018       ?_RTC_ErrorLevels@@3PAHA   0043b018     MSVCRTD:error.obj
 0004:00000030       ___scrt_default_matherr    0043b030     MSVCRTD:matherr.obj
 0004:00000034       ___isa_enabled             0043b034     MSVCRTD:cpu_disp.obj
 0004:00000038       ___scrt_ucrt_dll_is_in_use 0043b038     MSVCRTD:ucrt_stubs.obj
 0004:00000144       ??_R0?AVbad_array_new_length@std@@@8 0043b144     Source.obj
 0004:00000174       ??_R0?AVbad_alloc@std@@@8  0043b174     Source.obj
 0004:00000198       ??_R0?AVexception@std@@@8  0043b198     Source.obj
 0004:000001bc       ??_R0?AVruntime_error@std@@@8 0043b1bc     Source.obj
 0004:000001e4       ??_R0?AVbad_cast@std@@@8   0043b1e4     Source.obj
 0004:00000204       ??_R0?AV?$basic_filebuf@DU?$char_traits@D@std@@@std@@@8 0043b204     Source.obj
 0004:0000024c       ??_R0?AV?$basic_streambuf@DU?$char_traits@D@std@@@std@@@8 0043b24c     Source.obj
 0004:00000294       ??_R0?AV?$basic_ifstream@DU?$char_traits@D@std@@@std@@@8 0043b294     Source.obj
 0004:000002dc       ??_R0?AV?$basic_istream@DU?$char_traits@D@std@@@std@@@8 0043b2dc     Source.obj
 0004:00000324       ??_R0?AV?$basic_ios@DU?$char_traits@D@std@@@std@@@8 0043b324     Source.obj
 0004:00000364       ??_R0?AVios_base@std@@@8   0043b364     Source.obj
 0004:00000384       ??_R0?AV?$_Iosb@H@std@@@8  0043b384     Source.obj
 0004:000003a8       ??_R0?AV?$basic_ofstream@DU?$char_traits@D@std@@@std@@@8 0043b3a8     Source.obj
 0004:000003f0       ??_R0?AV?$basic_ostream@DU?$char_traits@D@std@@@std@@@8 0043b3f0     Source.obj
 0004:00000438       ??_R0?AVAccount@@@8        0043b438     Source.obj
 0004:00000454       ??_R0?AVSimpleAcc@@@8      0043b454     Source.obj
 0004:00000470       ??_R0?AVBonusAcc@@@8       0043b470     Source.obj
 0004:0000048c       ??_R0?AVServiceAcc@@@8     0043b48c     Source.obj
 0004:000004ac       ??_R0?AVBalancedAcc@@@8    0043b4ac     Source.obj
 0004:000004cc       ??_R0?AVtype_info@@@8      0043b4cc     MSVCRTD:std_type_info_static.obj
 0004:00000600       ?_Stinit@?1??_Init@?$basic_filebuf@DU?$char_traits@D@std@@@std@@IAEXPAU_iobuf@@W4_Initfl@23@@Z@4U_Mbstatet@@A 0043b600     Source.obj
 0004:0000060c       ?_Psave@?$_Facetptr@V?$codecvt@DDU_Mbstatet@@@std@@@std@@2PBVfacet@locale@2@B 0043b60c     Source.obj
 0004:00000610       ___@@_PchSym_@00@UfhvihUgboviUhlfixvUivklhUhgzgrxoryUwvyftUkxsOlyq@4B2008FD98C1DD4 0043b610     StaticLib:pch.obj
 0004:00000620       ___scrt_current_native_startup_state 0043b620     MSVCRTD:utility.obj
 0004:00000624       ___scrt_native_startup_lock 0043b624     MSVCRTD:utility.obj
 0004:00000650       ?_OptionsStorage@?1??__local_stdio_printf_options@@9@4_KA 0043b650     MSVCRTD:error.obj
 0004:00000a28       ?__type_info_root_node@@3U__type_info_node@@A 0043ba28     MSVCRTD:tncleanup.obj
 0004:00000a38       ?_OptionsStorage@?1??__local_stdio_scanf_options@@9@4_KA 0043ba38     MSVCRTD:default_local_stdio_options.obj
 0004:00000a44       ___scrt_debugger_hook_flag 0043ba44     MSVCRTD:utility_desktop.obj
 0004:00000a48       ___isa_available           0043ba48     MSVCRTD:cpu_disp.obj
 0004:00000a4c       ___favor                   0043ba4c     MSVCRTD:cpu_disp.obj
 0004:00000a5c       ___dyn_tls_dtor_callback   0043ba5c     <common>
 0004:00000a68       ___dyn_tls_init_callback   0043ba68     <common>
 0004:00000a74       ___DebuggerCurrentSteppingThreadId 0043ba74     <common>
 0005:00000000       __imp__GetCurrentThreadId@0 0043c000     kernel32:KERNEL32.dll
 0005:00000004       __imp__IsDebuggerPresent@0 0043c004     kernel32:KERNEL32.dll
 0005:00000008       __imp__RaiseException@16   0043c008     kernel32:KERNEL32.dll
 0005:0000000c       __imp__MultiByteToWideChar@24 0043c00c     kernel32:KERNEL32.dll
 0005:00000010       __imp__WideCharToMultiByte@32 0043c010     kernel32:KERNEL32.dll
 0005:00000014       __imp__UnhandledExceptionFilter@4 0043c014     kernel32:KERNEL32.dll
 0005:00000018       __imp__SetUnhandledExceptionFilter@4 0043c018     kernel32:KERNEL32.dll
 0005:0000001c       __imp__GetCurrentProcess@0 0043c01c     kernel32:KERNEL32.dll
 0005:00000020       __imp__TerminateProcess@8  0043c020     kernel32:KERNEL32.dll
 0005:00000024       __imp__IsProcessorFeaturePresent@4 0043c024     kernel32:KERNEL32.dll
 0005:00000028       __imp__QueryPerformanceCounter@4 0043c028     kernel32:KERNEL32.dll
 0005:0000002c       __imp__GetCurrentProcessId@0 0043c02c     kernel32:KERNEL32.dll
 0005:00000030       __imp__GetSystemTimeAsFileTime@4 0043c030     kernel32:KERNEL32.dll
 0005:00000034       __imp__InitializeSListHead@4 0043c034     kernel32:KERNEL32.dll
 0005:00000038       __imp__GetStartupInfoW@4   0043c038     kernel32:KERNEL32.dll
 0005:0000003c       __imp__GetModuleHandleW@4  0043c03c     kernel32:KERNEL32.dll
 0005:00000040       __imp__GetLastError@0      0043c040     kernel32:KERNEL32.dll
 0005:00000044       __imp__HeapAlloc@12        0043c044     kernel32:KERNEL32.dll
 0005:00000048       __imp__HeapFree@12         0043c048     kernel32:KERNEL32.dll
 0005:0000004c       __imp__GetProcessHeap@0    0043c04c     kernel32:KERNEL32.dll
 0005:00000050       __imp__VirtualQuery@12     0043c050     kernel32:KERNEL32.dll
 0005:00000054       __imp__FreeLibrary@4       0043c054     kernel32:KERNEL32.dll
 0005:00000058       __imp__GetProcAddress@8    0043c058     kernel32:KERNEL32.dll
 0005:0000005c       \177KERNEL32_NULL_THUNK_DATA 0043c05c     kernel32:KERNEL32.dll
 0005:00000098       __imp_?snextc@?$basic_streambuf@DU?$char_traits@D@std@@@std@@QAEHXZ 0043c098     msvcprtd:MSVCP140D.dll
 0005:0000009c       __imp_?sputc@?$basic_streambuf@DU?$char_traits@D@std@@@std@@QAEHD@Z 0043c09c     msvcprtd:MSVCP140D.dll
 0005:000000a0       __imp_?sputn@?$basic_streambuf@DU?$char_traits@D@std@@@std@@QAE_JPBD_J@Z 0043c0a0     msvcprtd:MSVCP140D.dll
 0005:000000a4       __imp_?eback@?$basic_streambuf@DU?$char_traits@D@std@@@std@@IBEPADXZ 0043c0a4     msvcprtd:MSVCP140D.dll
 0005:000000a8       __imp_?gptr@?$basic_streambuf@DU?$char_traits@D@std@@@std@@IBEPADXZ 0043c0a8     msvcprtd:MSVCP140D.dll
 0005:000000ac       __imp_?pptr@?$basic_streambuf@DU?$char_traits@D@std@@@std@@IBEPADXZ 0043c0ac     msvcprtd:MSVCP140D.dll
 0005:000000b0       __imp_?egptr@?$basic_streambuf@DU?$char_traits@D@std@@@std@@IBEPADXZ 0043c0b0     msvcprtd:MSVCP140D.dll
 0005:000000b4       __imp_?gbump@?$basic_streambuf@DU?$char_traits@D@std@@@std@@IAEXH@Z 0043c0b4     msvcprtd:MSVCP140D.dll
 0005:000000b8       __imp_?setg@?$basic_streambuf@DU?$char_traits@D@std@@@std@@IAEXPAD00@Z 0043c0b8     msvcprtd:MSVCP140D.dll
 0005:000000bc       __imp_?epptr@?$basic_streambuf@DU?$char_traits@D@std@@@std@@IBEPADXZ 0043c0bc     msvcprtd:MSVCP140D.dll
 0005:000000c0       __imp_?_Gndec@?$basic_streambuf@DU?$char_traits@D@std@@@std@@IAEPADXZ 0043c0c0     msvcprtd:MSVCP140D.dll
 0005:000000c4       __imp_?_Gninc@?$basic_streambuf@DU?$char_traits@D@std@@@std@@IAEPADXZ 0043c0c4     msvcprtd:MSVCP140D.dll
 0005:000000c8       __imp_?_Gnavail@?$basic_streambuf@DU?$char_traits@D@std@@@std@@IBE_JXZ 0043c0c8     msvcprtd:MSVCP140D.dll
 0005:000000cc       __imp_?pbump@?$basic_streambuf@DU?$char_traits@D@std@@@std@@IAEXH@Z 0043c0cc     msvcprtd:MSVCP140D.dll
 0005:000000d0       __imp_?_Pninc@?$basic_streambuf@DU?$char_traits@D@std@@@std@@IAEPADXZ 0043c0d0     msvcprtd:MSVCP140D.dll
 0005:000000d4       __imp_?_Pnavail@?$basic_streambuf@DU?$char_traits@D@std@@@std@@IBE_JXZ 0043c0d4     msvcprtd:MSVCP140D.dll
 0005:000000d8       __imp_?_Init@?$basic_streambuf@DU?$char_traits@D@std@@@std@@IAEXXZ 0043c0d8     msvcprtd:MSVCP140D.dll
 0005:000000dc       __imp_?_Init@?$basic_streambuf@DU?$char_traits@D@std@@@std@@IAEXPAPAD0PAH001@Z 0043c0dc     msvcprtd:MSVCP140D.dll
 0005:000000e0       __imp_?xsgetn@?$basic_streambuf@DU?$char_traits@D@std@@@std@@MAE_JPAD_J@Z 0043c0e0     msvcprtd:MSVCP140D.dll
 0005:000000e4       __imp_?xsputn@?$basic_streambuf@DU?$char_traits@D@std@@@std@@MAE_JPBD_J@Z 0043c0e4     msvcprtd:MSVCP140D.dll
 0005:000000e8       __imp_?sgetc@?$basic_streambuf@DU?$char_traits@D@std@@@std@@QAEHXZ 0043c0e8     msvcprtd:MSVCP140D.dll
 0005:000000ec       __imp_?setstate@?$basic_ios@DU?$char_traits@D@std@@@std@@QAEXH_N@Z 0043c0ec     msvcprtd:MSVCP140D.dll
 0005:000000f0       __imp_?tie@?$basic_ios@DU?$char_traits@D@std@@@std@@QBEPAV?$basic_ostream@DU?$char_traits@D@std@@@2@XZ 0043c0f0     msvcprtd:MSVCP140D.dll
 0005:000000f4       __imp_?rdbuf@?$basic_ios@DU?$char_traits@D@std@@@std@@QBEPAV?$basic_streambuf@DU?$char_traits@D@std@@@2@XZ 0043c0f4     msvcprtd:MSVCP140D.dll
 0005:000000f8       __imp_?fill@?$basic_ios@DU?$char_traits@D@std@@@std@@QBEDXZ 0043c0f8     msvcprtd:MSVCP140D.dll
 0005:000000fc       __imp_??0?$basic_ios@DU?$char_traits@D@std@@@std@@IAE@XZ 0043c0fc     msvcprtd:MSVCP140D.dll
 0005:00000100       __imp_??0?$basic_ostream@DU?$char_traits@D@std@@@std@@QAE@PAV?$basic_streambuf@DU?$char_traits@D@std@@@1@_N@Z 0043c100     msvcprtd:MSVCP140D.dll
 0005:00000104       __imp_??1?$basic_ostream@DU?$char_traits@D@std@@@std@@UAE@XZ 0043c104     msvcprtd:MSVCP140D.dll
 0005:00000108       __imp_?_Osfx@?$basic_ostream@DU?$char_traits@D@std@@@std@@QAEXXZ 0043c108     msvcprtd:MSVCP140D.dll
 0005:0000010c       __imp_??6?$basic_ostream@DU?$char_traits@D@std@@@std@@QAEAAV01@H@Z 0043c10c     msvcprtd:MSVCP140D.dll
 0005:00000110       __imp_??6?$basic_ostream@DU?$char_traits@D@std@@@std@@QAEAAV01@N@Z 0043c110     msvcprtd:MSVCP140D.dll
 0005:00000114       __imp_?flush@?$basic_ostream@DU?$char_traits@D@std@@@std@@QAEAAV12@XZ 0043c114     msvcprtd:MSVCP140D.dll
 0005:00000118       __imp_??0?$basic_istream@DU?$char_traits@D@std@@@std@@QAE@PAV?$basic_streambuf@DU?$char_traits@D@std@@@1@_N@Z 0043c118     msvcprtd:MSVCP140D.dll
 0005:0000011c       __imp_??1?$basic_istream@DU?$char_traits@D@std@@@std@@UAE@XZ 0043c11c     msvcprtd:MSVCP140D.dll
 0005:00000120       __imp_?_Ipfx@?$basic_istream@DU?$char_traits@D@std@@@std@@QAE_N_N@Z 0043c120     msvcprtd:MSVCP140D.dll
 0005:00000124       __imp_?_Fiopen@std@@YAPAU_iobuf@@PBDHH@Z 0043c124     msvcprtd:MSVCP140D.dll
 0005:00000128       __imp_?showmanyc@?$basic_streambuf@DU?$char_traits@D@std@@@std@@MAE_JXZ 0043c128     msvcprtd:MSVCP140D.dll
 0005:0000012c       __imp_?id@?$codecvt@DDU_Mbstatet@@@std@@2V0locale@2@A 0043c12c     msvcprtd:MSVCP140D.dll
 0005:00000130       __imp_?cerr@std@@3V?$basic_ostream@DU?$char_traits@D@std@@@1@A 0043c130     msvcprtd:MSVCP140D.dll
 0005:00000134       __imp_?_Xbad_alloc@std@@YAXXZ 0043c134     msvcprtd:MSVCP140D.dll
 0005:00000138       __imp_?sbumpc@?$basic_streambuf@DU?$char_traits@D@std@@@std@@QAEHXZ 0043c138     msvcprtd:MSVCP140D.dll
 0005:0000013c       __imp_?getloc@?$basic_streambuf@DU?$char_traits@D@std@@@std@@QBE?AVlocale@2@XZ 0043c13c     msvcprtd:MSVCP140D.dll
 0005:00000140       __imp_??1?$basic_streambuf@DU?$char_traits@D@std@@@std@@UAE@XZ 0043c140     msvcprtd:MSVCP140D.dll
 0005:00000144       __imp_??0?$basic_streambuf@DU?$char_traits@D@std@@@std@@IAE@XZ 0043c144     msvcprtd:MSVCP140D.dll
 0005:00000148       __imp_?width@ios_base@std@@QAE_J_J@Z 0043c148     msvcprtd:MSVCP140D.dll
 0005:0000014c       __imp_?width@ios_base@std@@QBE_JXZ 0043c14c     msvcprtd:MSVCP140D.dll
 0005:00000150       __imp_?flags@ios_base@std@@QBEHXZ 0043c150     msvcprtd:MSVCP140D.dll
 0005:00000154       __imp_?eof@ios_base@std@@QBE_NXZ 0043c154     msvcprtd:MSVCP140D.dll
 0005:00000158       __imp_?good@ios_base@std@@QBE_NXZ 0043c158     msvcprtd:MSVCP140D.dll
 0005:0000015c       __imp_??7ios_base@std@@QBE_NXZ 0043c15c     msvcprtd:MSVCP140D.dll
 0005:00000160       __imp_?_Getcat@?$codecvt@DDU_Mbstatet@@@std@@SAIPAPBVfacet@locale@2@PBV42@@Z 0043c160     msvcprtd:MSVCP140D.dll
 0005:00000164       __imp_?unshift@?$codecvt@DDU_Mbstatet@@@std@@QBEHAAU_Mbstatet@@PAD1AAPAD@Z 0043c164     msvcprtd:MSVCP140D.dll
 0005:00000168       __imp_?out@?$codecvt@DDU_Mbstatet@@@std@@QBEHAAU_Mbstatet@@PBD1AAPBDPAD3AAPAD@Z 0043c168     msvcprtd:MSVCP140D.dll
 0005:0000016c       __imp_?in@?$codecvt@DDU_Mbstatet@@@std@@QBEHAAU_Mbstatet@@PBD1AAPBDPAD3AAPAD@Z 0043c16c     msvcprtd:MSVCP140D.dll
 0005:00000170       __imp_?always_noconv@codecvt_base@std@@QBE_NXZ 0043c170     msvcprtd:MSVCP140D.dll
 0005:00000174       __imp_?_Getgloballocale@locale@std@@CAPAV_Locimp@12@XZ 0043c174     msvcprtd:MSVCP140D.dll
 0005:00000178       __imp_??Bid@locale@std@@QAEIXZ 0043c178     msvcprtd:MSVCP140D.dll
 0005:0000017c       __imp_?_Xout_of_range@std@@YAXPBD@Z 0043c17c     msvcprtd:MSVCP140D.dll
 0005:00000180       __imp_??0_Lockit@std@@QAE@H@Z 0043c180     msvcprtd:MSVCP140D.dll
 0005:00000184       __imp_?_Xlength_error@std@@YAXPBD@Z 0043c184     msvcprtd:MSVCP140D.dll
 0005:00000188       __imp_?_Xinvalid_argument@std@@YAXPBD@Z 0043c188     msvcprtd:MSVCP140D.dll
 0005:0000018c       __imp_?uncaught_exception@std@@YA_NXZ 0043c18c     msvcprtd:MSVCP140D.dll
 0005:00000190       __imp_??1_Lockit@std@@QAE@XZ 0043c190     msvcprtd:MSVCP140D.dll
 0005:00000194       __imp_??1?$basic_ios@DU?$char_traits@D@std@@@std@@UAE@XZ 0043c194     msvcprtd:MSVCP140D.dll
 0005:00000198       __imp_??6?$basic_ostream@DU?$char_traits@D@std@@@std@@QAEAAV01@P6AAAVios_base@1@AAV21@@Z@Z 0043c198     msvcprtd:MSVCP140D.dll
 0005:0000019c       __imp_?setf@ios_base@std@@QAEHHH@Z 0043c19c     msvcprtd:MSVCP140D.dll
 0005:000001a0       \177MSVCP140D_NULL_THUNK_DATA 0043c1a0     msvcprtd:MSVCP140D.dll
 0005:000001f4       __imp__memcmp              0043c1f4     vcruntimed:VCRUNTIME140D.dll
 0005:000001f8       __imp__memcpy              0043c1f8     vcruntimed:VCRUNTIME140D.dll
 0005:000001fc       __imp__memmove             0043c1fc     vcruntimed:VCRUNTIME140D.dll
 0005:00000200       __imp____std_exception_copy 0043c200     vcruntimed:VCRUNTIME140D.dll
 0005:00000204       __imp____std_exception_destroy 0043c204     vcruntimed:VCRUNTIME140D.dll
 0005:00000208       __imp___CxxThrowException@8 0043c208     vcruntimed:VCRUNTIME140D.dll
 0005:0000020c       __imp____CxxFrameHandler3  0043c20c     vcruntimed:VCRUNTIME140D.dll
 0005:00000210       __imp__memset              0043c210     vcruntimed:VCRUNTIME140D.dll
 0005:00000214       __imp__memchr              0043c214     vcruntimed:VCRUNTIME140D.dll
 0005:00000218       __imp____std_type_info_destroy_list 0043c218     vcruntimed:VCRUNTIME140D.dll
 0005:0000021c       __imp____current_exception 0043c21c     vcruntimed:VCRUNTIME140D.dll
 0005:00000220       __imp____current_exception_context 0043c220     vcruntimed:VCRUNTIME140D.dll
 0005:00000224       __imp___except_handler4_common 0043c224     vcruntimed:VCRUNTIME140D.dll
 0005:00000228       __imp____vcrt_GetModuleFileNameW 0043c228     vcruntimed:VCRUNTIME140D.dll
 0005:0000022c       __imp____vcrt_GetModuleHandleW 0043c22c     vcruntimed:VCRUNTIME140D.dll
 0005:00000230       __imp____vcrt_LoadLibraryExW 0043c230     vcruntimed:VCRUNTIME140D.dll
 0005:00000234       __imp___purecall           0043c234     vcruntimed:VCRUNTIME140D.dll
 0005:00000238       \177VCRUNTIME140D_NULL_THUNK_DATA 0043c238     vcruntimed:VCRUNTIME140D.dll
 0005:00000270       __imp___seh_filter_exe     0043c270     ucrtd:ucrtbased.dll
 0005:00000274       __imp___set_app_type       0043c274     ucrtd:ucrtbased.dll
 0005:00000278       __imp____setusermatherr    0043c278     ucrtd:ucrtbased.dll
 0005:0000027c       __imp___configure_narrow_argv 0043c27c     ucrtd:ucrtbased.dll
 0005:00000280       __imp___initialize_narrow_environment 0043c280     ucrtd:ucrtbased.dll
 0005:00000284       __imp___get_initial_narrow_environment 0043c284     ucrtd:ucrtbased.dll
 0005:00000288       __imp___initterm           0043c288     ucrtd:ucrtbased.dll
 0005:0000028c       __imp___initterm_e         0043c28c     ucrtd:ucrtbased.dll
 0005:00000290       __imp__exit                0043c290     ucrtd:ucrtbased.dll
 0005:00000294       __imp___exit               0043c294     ucrtd:ucrtbased.dll
 0005:00000298       __imp___set_fmode          0043c298     ucrtd:ucrtbased.dll
 0005:0000029c       __imp____p___argc          0043c29c     ucrtd:ucrtbased.dll
 0005:000002a0       __imp____p___argv          0043c2a0     ucrtd:ucrtbased.dll
 0005:000002a4       __imp___cexit              0043c2a4     ucrtd:ucrtbased.dll
 0005:000002a8       __imp___c_exit             0043c2a8     ucrtd:ucrtbased.dll
 0005:000002ac       __imp___register_thread_local_exe_atexit_callback 0043c2ac     ucrtd:ucrtbased.dll
 0005:000002b0       __imp___configthreadlocale 0043c2b0     ucrtd:ucrtbased.dll
 0005:000002b4       __imp___set_new_mode       0043c2b4     ucrtd:ucrtbased.dll
 0005:000002b8       __imp___CrtDbgReportW      0043c2b8     ucrtd:ucrtbased.dll
 0005:000002bc       __imp___seh_filter_dll     0043c2bc     ucrtd:ucrtbased.dll
 0005:000002c0       __imp___initialize_onexit_table 0043c2c0     ucrtd:ucrtbased.dll
 0005:000002c4       __imp___register_onexit_function 0043c2c4     ucrtd:ucrtbased.dll
 0005:000002c8       __imp___execute_onexit_table 0043c2c8     ucrtd:ucrtbased.dll
 0005:000002cc       __imp___crt_atexit         0043c2cc     ucrtd:ucrtbased.dll
 0005:000002d0       __imp___crt_at_quick_exit  0043c2d0     ucrtd:ucrtbased.dll
 0005:000002d4       __imp__strcpy_s            0043c2d4     ucrtd:ucrtbased.dll
 0005:000002d8       __imp__strcat_s            0043c2d8     ucrtd:ucrtbased.dll
 0005:000002dc       __imp____stdio_common_vsprintf_s 0043c2dc     ucrtd:ucrtbased.dll
 0005:000002e0       __imp___controlfp_s        0043c2e0     ucrtd:ucrtbased.dll
 0005:000002e4       __imp__terminate           0043c2e4     ucrtd:ucrtbased.dll
 0005:000002e8       __imp___wmakepath_s        0043c2e8     ucrtd:ucrtbased.dll
 0005:000002ec       __imp___wsplitpath_s       0043c2ec     ucrtd:ucrtbased.dll
 0005:000002f0       __imp__wcscpy_s            0043c2f0     ucrtd:ucrtbased.dll
 0005:000002f4       __imp__malloc              0043c2f4     ucrtd:ucrtbased.dll
 0005:000002f8       __imp__fflush              0043c2f8     ucrtd:ucrtbased.dll
 0005:000002fc       __imp__fclose              0043c2fc     ucrtd:ucrtbased.dll
 0005:00000300       __imp___get_stream_buffer_pointers 0043c300     ucrtd:ucrtbased.dll
 0005:00000304       __imp___CrtDbgReport       0043c304     ucrtd:ucrtbased.dll
 0005:00000308       __imp___invalid_parameter  0043c308     ucrtd:ucrtbased.dll
 0005:0000030c       __imp___callnewh           0043c30c     ucrtd:ucrtbased.dll
 0005:00000310       __imp___malloc_dbg         0043c310     ucrtd:ucrtbased.dll
 0005:00000314       __imp___free_dbg           0043c314     ucrtd:ucrtbased.dll
 0005:00000318       __imp__strtod              0043c318     ucrtd:ucrtbased.dll
 0005:0000031c       __imp__strlen              0043c31c     ucrtd:ucrtbased.dll
 0005:00000320       __imp___errno              0043c320     ucrtd:ucrtbased.dll
 0005:00000324       __imp___unlock_file        0043c324     ucrtd:ucrtbased.dll
 0005:00000328       __imp___lock_file          0043c328     ucrtd:ucrtbased.dll
 0005:0000032c       __imp__ungetc              0043c32c     ucrtd:ucrtbased.dll
 0005:00000330       __imp__setvbuf             0043c330     ucrtd:ucrtbased.dll
 0005:00000334       __imp__fwrite              0043c334     ucrtd:ucrtbased.dll
 0005:00000338       __imp___fseeki64           0043c338     ucrtd:ucrtbased.dll
 0005:0000033c       __imp__fsetpos             0043c33c     ucrtd:ucrtbased.dll
 0005:00000340       __imp__fread               0043c340     ucrtd:ucrtbased.dll
 0005:00000344       __imp__fputc               0043c344     ucrtd:ucrtbased.dll
 0005:00000348       __imp__fgetpos             0043c348     ucrtd:ucrtbased.dll
 0005:0000034c       __imp____p__commode        0043c34c     ucrtd:ucrtbased.dll
 0005:00000350       __imp__fgetc               0043c350     ucrtd:ucrtbased.dll
 0005:00000354       \177ucrtbased_NULL_THUNK_DATA 0043c354     ucrtd:ucrtbased.dll
 0005:000003ac       __IMPORT_DESCRIPTOR_MSVCP140D 0043c3ac     msvcprtd:MSVCP140D.dll
 0005:000003c0       __IMPORT_DESCRIPTOR_VCRUNTIME140D 0043c3c0     vcruntimed:VCRUNTIME140D.dll
 0005:000003d4       __IMPORT_DESCRIPTOR_ucrtbased 0043c3d4     ucrtd:ucrtbased.dll
 0005:000003e8       __IMPORT_DESCRIPTOR_KERNEL32 0043c3e8     kernel32:KERNEL32.dll
 0005:000003fc       __NULL_IMPORT_DESCRIPTOR   0043c3fc     msvcprtd:MSVCP140D.dll
 0007:00000000       ___guard_check_icall_fptr  00440000     MSVCRTD:guard_support.obj

 entry point at        0002:00000c4e

 Static symbols

 0003:fffcc000       __ehfuncinfo$??$?0D@?$allocator@U_Container_proxy@std@@@std@@QAE@ABV?$allocator@D@1@@Z 00400000     StaticLib:trim.obj
 0003:fffcc000       __ehfuncinfo$??$_Construct_in_place@PADABQAD@std@@YAXAAPADABQAD@Z 00400000     StaticLib:trim.obj
 0003:fffcc000       __ehfuncinfo$??$_Construct_in_place@U_Container_proxy@std@@PAU_Container_base12@2@@std@@YAXAAU_Container_proxy@0@$$QAPAU_Container_base12@0@@Z 00400000     StaticLib:trim.obj
 0003:fffcc000       __ehfuncinfo$??$_Deallocate@$07$0A@@std@@YAXPAXI@Z 00400000     StaticLib:trim.obj
 0003:fffcc000       __ehfuncinfo$??$_Deallocate_plain@V?$allocator@U_Container_proxy@std@@@std@@@std@@YAXAAV?$allocator@U_Container_proxy@std@@@0@QAU_Container_proxy@0@@Z 00400000     StaticLib:trim.obj
 0003:fffcc000       __ehfuncinfo$??$_Delete_plain_internal@V?$allocator@U_Container_proxy@std@@@std@@@std@@YAXAAV?$allocator@U_Container_proxy@std@@@0@QAU_Container_proxy@0@@Z 00400000     StaticLib:trim.obj
 0003:fffcc000       __ehfuncinfo$??$_Max_value@I@std@@YAABIABI0@Z 00400000     StaticLib:trim.obj
 0003:fffcc000       __ehfuncinfo$??$_Min_value@I@std@@YAABIABI0@Z 00400000     StaticLib:trim.obj
 0003:fffcc000       __ehfuncinfo$??$addressof@PAD@std@@YAPAPADAAPAD@Z 00400000     StaticLib:trim.obj
 0003:fffcc000       __ehfuncinfo$??$addressof@U_Container_base12@std@@@std@@YAPAU_Container_base12@0@AAU10@@Z 00400000     StaticLib:trim.obj
 0003:fffcc000       __ehfuncinfo$??$addressof@U_Container_proxy@std@@@std@@YAPAU_Container_proxy@0@AAU10@@Z 00400000     StaticLib:trim.obj
 0003:fffcc000       __ehfuncinfo$??$forward@ABQAD@std@@YAABQADABQAD@Z 00400000     StaticLib:trim.obj
 0003:fffcc000       __ehfuncinfo$??$forward@ABV?$allocator@D@std@@@std@@YAABV?$allocator@D@0@ABV10@@Z 00400000     StaticLib:trim.obj
 0003:fffcc000       __ehfuncinfo$??$forward@PAU_Container_base12@std@@@std@@YA$$QAPAU_Container_base12@0@AAPAU10@@Z 00400000     StaticLib:trim.obj
 0003:fffcc000       __ehfuncinfo$??0?$allocator@D@std@@QAE@XZ 00400000     StaticLib:trim.obj
 0003:fffcc000       __ehfuncinfo$??0_Container_proxy@std@@QAE@PAU_Container_base12@1@@Z 00400000     StaticLib:trim.obj
 0003:fffcc000       __ehfuncinfo$??0bad_alloc@std@@AAE@QBD@Z 00400000     StaticLib:trim.obj
 0003:fffcc000       __ehfuncinfo$??0bad_array_new_length@std@@QAE@XZ 00400000     StaticLib:trim.obj
 0003:fffcc000       __ehfuncinfo$??0exception@std@@QAE@ABV01@@Z 00400000     StaticLib:trim.obj
 0003:fffcc000       __ehfuncinfo$??0exception@std@@QAE@QBDH@Z 00400000     StaticLib:trim.obj
 0003:fffcc000       __ehfuncinfo$??1?$_Container_proxy_ptr12@V?$allocator@U_Container_proxy@std@@@std@@@std@@QAE@XZ 00400000     StaticLib:trim.obj
 0003:fffcc000       __ehfuncinfo$??1_Bxty@?$_String_val@U?$_Simple_types@D@std@@@std@@QAE@XZ 00400000     StaticLib:trim.obj
 0003:fffcc000       __ehfuncinfo$??1exception@std@@UAE@XZ 00400000     StaticLib:trim.obj
 0003:fffcc000       __ehfuncinfo$??2@YAPAXIPAX@Z 00400000     StaticLib:trim.obj
 0003:fffcc000       __ehfuncinfo$?_Calculate_growth@?$basic_string@DU?$char_traits@D@std@@V?$allocator@D@2@@std@@ABEII@Z 00400000     StaticLib:trim.obj
 0003:fffcc000       __ehfuncinfo$?_Calculate_growth@?$basic_string@DU?$char_traits@D@std@@V?$allocator@D@2@@std@@CAIIII@Z 00400000     StaticLib:trim.obj
 0003:fffcc000       __ehfuncinfo$?_Clamp_suffix_size@?$_String_val@U?$_Simple_types@D@std@@@std@@QBEIII@Z 00400000     StaticLib:trim.obj
 0003:fffcc000       __ehfuncinfo$?_Get_first@?$_Compressed_pair@V?$allocator@D@std@@V?$_String_val@U?$_Simple_types@D@std@@@2@$00@std@@QAEAAV?$allocator@D@2@XZ 00400000     StaticLib:trim.obj
 0003:fffcc000       __ehfuncinfo$?_Get_first@?$_Compressed_pair@V?$allocator@D@std@@V?$_String_val@U?$_Simple_types@D@std@@@2@$00@std@@QBEABV?$allocator@D@2@XZ 00400000     StaticLib:trim.obj
 0003:fffcc000       __ehfuncinfo$?_Getal@?$basic_string@DU?$char_traits@D@std@@V?$allocator@D@2@@std@@AAEAAV?$allocator@D@2@XZ 00400000     StaticLib:trim.obj
 0003:fffcc000       __ehfuncinfo$?_Getal@?$basic_string@DU?$char_traits@D@std@@V?$allocator@D@2@@std@@ABEABV?$allocator@D@2@XZ 00400000     StaticLib:trim.obj
 0003:fffcc000       __ehfuncinfo$?_Orphan_all@_Container_base12@std@@QAEXXZ 00400000     StaticLib:trim.obj
 0003:fffcc000       __ehfuncinfo$?_Release@_Basic_container_proxy_ptr12@std@@QAEXXZ 00400000     StaticLib:trim.obj
 0003:fffcc000       __ehfuncinfo$?_Tidy_init@?$basic_string@DU?$char_traits@D@std@@V?$allocator@D@2@@std@@AAEXXZ 00400000     StaticLib:trim.obj
 0003:fffcc000       __ehfuncinfo$?assign@?$_Narrow_char_traits@DH@std@@SAXAADABD@Z 00400000     StaticLib:trim.obj
 0003:fffcc000       __ehfuncinfo$?copy@?$_Narrow_char_traits@DH@std@@SAPADQADQBDI@Z 00400000     StaticLib:trim.obj
 0003:fffcc000       __ehfuncinfo$?length@?$_Narrow_char_traits@DH@std@@SAIQBD@Z 00400000     StaticLib:trim.obj
 0003:fffcc000       __ehfuncinfo$?max@?$numeric_limits@H@std@@SAHXZ 00400000     StaticLib:trim.obj
 0003:fffcc000       __ehfuncinfo$?max_size@?$_Default_allocator_traits@V?$allocator@D@std@@@std@@SAIABV?$allocator@D@2@@Z 00400000     StaticLib:trim.obj
 0003:fffcc000       __ehfuncinfo$?max_size@?$basic_string@DU?$char_traits@D@std@@V?$allocator@D@2@@std@@QBEIXZ 00400000     StaticLib:trim.obj
 0003:fffcc000       __ehfuncinfo$?move@?$_Narrow_char_traits@DH@std@@SAPADQADQBDI@Z 00400000     StaticLib:trim.obj
 0002:fffef000       __ehhandler$??$?0D@?$allocator@U_Container_proxy@std@@@std@@QAE@ABV?$allocator@D@1@@Z 00400000 f   StaticLib:trim.obj
 0002:fffef000       __ehhandler$??$_Construct_in_place@PADABQAD@std@@YAXAAPADABQAD@Z 00400000 f   StaticLib:trim.obj
 0002:fffef000       __ehhandler$??$_Construct_in_place@U_Container_proxy@std@@PAU_Container_base12@2@@std@@YAXAAU_Container_proxy@0@$$QAPAU_Container_base12@0@@Z 00400000 f   StaticLib:trim.obj
 0002:fffef000       __ehhandler$??$_Deallocate@$07$0A@@std@@YAXPAXI@Z 00400000 f   StaticLib:trim.obj
 0002:fffef000       __ehhandler$??$_Deallocate_plain@V?$allocator@U_Container_proxy@std@@@std@@@std@@YAXAAV?$allocator@U_Container_proxy@std@@@0@QAU_Container_proxy@0@@Z 00400000 f   StaticLib:trim.obj
 0002:fffef000       __ehhandler$??$_Delete_plain_internal@V?$allocator@U_Container_proxy@std@@@std@@@std@@YAXAAV?$allocator@U_Container_proxy@std@@@0@QAU_Container_proxy@0@@Z 00400000 f   StaticLib:trim.obj
 0002:fffef000       __ehhandler$??$_Max_value@I@std@@YAABIABI0@Z 00400000 f   StaticLib:trim.obj
 0002:fffef000       __ehhandler$??$_Min_value@I@std@@YAABIABI0@Z 00400000 f   StaticLib:trim.obj
 0002:fffef000       __ehhandler$??$addressof@PAD@std@@YAPAPADAAPAD@Z 00400000 f   StaticLib:trim.obj
 0002:fffef000       __ehhandler$??$addressof@U_Container_base12@std@@@std@@YAPAU_Container_base12@0@AAU10@@Z 00400000 f   StaticLib:trim.obj
 0002:fffef000       __ehhandler$??$addressof@U_Container_proxy@std@@@std@@YAPAU_Container_proxy@0@AAU10@@Z 00400000 f   StaticLib:trim.obj
 0002:fffef000       __ehhandler$??$forward@ABQAD@std@@YAABQADABQAD@Z 00400000 f   StaticLib:trim.obj
 0002:fffef000       __ehhandler$??$forward@ABV?$allocator@D@std@@@std@@YAABV?$allocator@D@0@ABV10@@Z 00400000 f   StaticLib:trim.obj
 0002:fffef000       __ehhandler$??$forward@PAU_Container_base12@std@@@std@@YA$$QAPAU_Container_base12@0@AAPAU10@@Z 00400000 f   StaticLib:trim.obj
 0002:fffef000       __ehhandler$??0?$allocator@D@std@@QAE@XZ 00400000 f   StaticLib:trim.obj
 0002:fffef000       __ehhandler$??0_Container_proxy@std@@QAE@PAU_Container_base12@1@@Z 00400000 f   StaticLib:trim.obj
 0002:fffef000       __ehhandler$??0bad_alloc@std@@AAE@QBD@Z 00400000 f   StaticLib:trim.obj
 0002:fffef000       __ehhandler$??0bad_array_new_length@std@@QAE@XZ 00400000 f   StaticLib:trim.obj
 0002:fffef000       __ehhandler$??0exception@std@@QAE@ABV01@@Z 00400000 f   StaticLib:trim.obj
 0002:fffef000       __ehhandler$??0exception@std@@QAE@QBDH@Z 00400000 f   StaticLib:trim.obj
 0002:fffef000       __ehhandler$??1?$_Container_proxy_ptr12@V?$allocator@U_Container_proxy@std@@@std@@@std@@QAE@XZ 00400000 f   StaticLib:trim.obj
 0002:fffef000       __ehhandler$??1_Bxty@?$_String_val@U?$_Simple_types@D@std@@@std@@QAE@XZ 00400000 f   StaticLib:trim.obj
 0002:fffef000       __ehhandler$??1exception@std@@UAE@XZ 00400000 f   StaticLib:trim.obj
 0002:fffef000       __ehhandler$??2@YAPAXIPAX@Z 00400000 f   StaticLib:trim.obj
 0002:fffef000       __ehhandler$?_Calculate_growth@?$basic_string@DU?$char_traits@D@std@@V?$allocator@D@2@@std@@ABEII@Z 00400000 f   StaticLib:trim.obj
 0002:fffef000       __ehhandler$?_Calculate_growth@?$basic_string@DU?$char_traits@D@std@@V?$allocator@D@2@@std@@CAIIII@Z 00400000 f   StaticLib:trim.obj
 0002:fffef000       __ehhandler$?_Clamp_suffix_size@?$_String_val@U?$_Simple_types@D@std@@@std@@QBEIII@Z 00400000 f   StaticLib:trim.obj
 0002:fffef000       __ehhandler$?_Get_first@?$_Compressed_pair@V?$allocator@D@std@@V?$_String_val@U?$_Simple_types@D@std@@@2@$00@std@@QAEAAV?$allocator@D@2@XZ 00400000 f   StaticLib:trim.obj
 0002:fffef000       __ehhandler$?_Get_first@?$_Compressed_pair@V?$allocator@D@std@@V?$_String_val@U?$_Simple_types@D@std@@@2@$00@std@@QBEABV?$allocator@D@2@XZ 00400000 f   StaticLib:trim.obj
 0002:fffef000       __ehhandler$?_Getal@?$basic_string@DU?$char_traits@D@std@@V?$allocator@D@2@@std@@AAEAAV?$allocator@D@2@XZ 00400000 f   StaticLib:trim.obj
 0002:fffef000       __ehhandler$?_Getal@?$basic_string@DU?$char_traits@D@std@@V?$allocator@D@2@@std@@ABEABV?$allocator@D@2@XZ 00400000 f   StaticLib:trim.obj
 0002:fffef000       __ehhandler$?_Orphan_all@_Container_base12@std@@QAEXXZ 00400000 f   StaticLib:trim.obj
 0002:fffef000       __ehhandler$?_Release@_Basic_container_proxy_ptr12@std@@QAEXXZ 00400000 f   StaticLib:trim.obj
 0002:fffef000       __ehhandler$?_Tidy_init@?$basic_string@DU?$char_traits@D@std@@V?$allocator@D@2@@std@@AAEXXZ 00400000 f   StaticLib:trim.obj
 0002:fffef000       __ehhandler$?assign@?$_Narrow_char_traits@DH@std@@SAXAADABD@Z 00400000 f   StaticLib:trim.obj
 0002:fffef000       __ehhandler$?copy@?$_Narrow_char_traits@DH@std@@SAPADQADQBDI@Z 00400000 f   StaticLib:trim.obj
 0002:fffef000       __ehhandler$?length@?$_Narrow_char_traits@DH@std@@SAIQBD@Z 00400000 f   StaticLib:trim.obj
 0002:fffef000       __ehhandler$?max@?$numeric_limits@H@std@@SAHXZ 00400000 f   StaticLib:trim.obj
 0002:fffef000       __ehhandler$?max_size@?$_Default_allocator_traits@V?$allocator@D@std@@@std@@SAIABV?$allocator@D@2@@Z 00400000 f   StaticLib:trim.obj
 0002:fffef000       __ehhandler$?max_size@?$basic_string@DU?$char_traits@D@std@@V?$allocator@D@2@@std@@QBEIXZ 00400000 f   StaticLib:trim.obj
 0002:fffef000       __ehhandler$?move@?$_Narrow_char_traits@DH@std@@SAPADQADQBDI@Z 00400000 f   StaticLib:trim.obj
 0002:fffef000       __unwindfunclet$??0?$basic_string@DU?$char_traits@D@std@@V?$allocator@D@2@@std@@QAE@ABV01@IIABV?$allocator@D@1@@Z$0 00400000 f   StaticLib:trim.obj
 0003:fffcc000       __unwindtable$??0?$basic_string@DU?$char_traits@D@std@@V?$allocator@D@2@@std@@QAE@ABV01@IIABV?$allocator@D@1@@Z 00400000     StaticLib:trim.obj
 0000:fffbc000       .debug$S                   00400000     kernel32:KERNEL32.dll
 0000:fffbc000       .debug$S                   00400000     kernel32:KERNEL32.dll
 0000:fffbc000       .debug$S                   00400000     kernel32:KERNEL32.dll
 0000:fffbc000       .debug$S                   00400000     kernel32:KERNEL32.dll
 0000:fffbc000       .debug$S                   00400000     kernel32:KERNEL32.dll
 0000:fffbc000       .debug$S                   00400000     kernel32:KERNEL32.dll
 0000:fffbc000       .debug$S                   00400000     kernel32:KERNEL32.dll
 0000:fffbc000       .debug$S                   00400000     kernel32:KERNEL32.dll
 0000:fffbc000       .debug$S                   00400000     kernel32:KERNEL32.dll
 0000:fffbc000       .debug$S                   00400000     kernel32:KERNEL32.dll
 0000:fffbc000       .debug$S                   00400000     kernel32:KERNEL32.dll
 0000:fffbc000       .debug$S                   00400000     kernel32:KERNEL32.dll
 0000:fffbc000       .debug$S                   00400000     kernel32:KERNEL32.dll
 0000:fffbc000       .debug$S                   00400000     kernel32:KERNEL32.dll
 0000:fffbc000       .debug$S                   00400000     kernel32:KERNEL32.dll
 0000:fffbc000       .debug$S                   00400000     kernel32:KERNEL32.dll
 0000:fffbc000       .debug$S                   00400000     kernel32:KERNEL32.dll
 0000:fffbc000       .debug$S                   00400000     kernel32:KERNEL32.dll
 0000:fffbc000       .debug$S                   00400000     kernel32:KERNEL32.dll
 0000:fffbc000       .debug$S                   00400000     kernel32:KERNEL32.dll
 0000:fffbc000       .debug$S                   00400000     kernel32:KERNEL32.dll
 0000:fffbc000       .debug$S                   00400000     kernel32:KERNEL32.dll
 0000:fffbc000       .debug$S                   00400000     kernel32:KERNEL32.dll
 0000:fffbc000       .debug$S                   00400000     msvcprtd:MSVCP140D.dll
 0000:fffbc000       .debug$S                   00400000     msvcprtd:MSVCP140D.dll
 0000:fffbc000       .debug$S                   00400000     msvcprtd:MSVCP140D.dll
 0000:fffbc000       .debug$S                   00400000     msvcprtd:MSVCP140D.dll
 0000:fffbc000       .debug$S                   00400000     msvcprtd:MSVCP140D.dll
 0000:fffbc000       .debug$S                   00400000     msvcprtd:MSVCP140D.dll
 0000:fffbc000       .debug$S                   00400000     msvcprtd:MSVCP140D.dll
 0000:fffbc000       .debug$S                   00400000     msvcprtd:MSVCP140D.dll
 0000:fffbc000       .debug$S                   00400000     msvcprtd:MSVCP140D.dll
 0000:fffbc000       .debug$S                   00400000     msvcprtd:MSVCP140D.dll
 0000:fffbc000       .debug$S                   00400000     msvcprtd:MSVCP140D.dll
 0000:fffbc000       .debug$S                   00400000     msvcprtd:MSVCP140D.dll
 0000:fffbc000       .debug$S                   00400000     msvcprtd:MSVCP140D.dll
 0000:fffbc000       .debug$S                   00400000     msvcprtd:MSVCP140D.dll
 0000:fffbc000       .debug$S                   00400000     msvcprtd:MSVCP140D.dll
 0000:fffbc000       .debug$S                   00400000     msvcprtd:MSVCP140D.dll
 0000:fffbc000       .debug$S                   00400000     msvcprtd:MSVCP140D.dll
 0000:fffbc000       .debug$S                   00400000     msvcprtd:MSVCP140D.dll
 0000:fffbc000       .debug$S                   00400000     msvcprtd:MSVCP140D.dll
 0000:fffbc000       .debug$S                   00400000     msvcprtd:MSVCP140D.dll
 0000:fffbc000       .debug$S                   00400000     msvcprtd:MSVCP140D.dll
 0000:fffbc000       .debug$S                   00400000     msvcprtd:MSVCP140D.dll
 0000:fffbc000       .debug$S                   00400000     msvcprtd:MSVCP140D.dll
 0000:fffbc000       .debug$S                   00400000     msvcprtd:MSVCP140D.dll
 0000:fffbc000       .debug$S                   00400000     msvcprtd:MSVCP140D.dll
 0000:fffbc000       .debug$S                   00400000     msvcprtd:MSVCP140D.dll
 0000:fffbc000       .debug$S                   00400000     msvcprtd:MSVCP140D.dll
 0000:fffbc000       .debug$S                   00400000     msvcprtd:MSVCP140D.dll
 0000:fffbc000       .debug$S                   00400000     msvcprtd:MSVCP140D.dll
 0000:fffbc000       .debug$S                   00400000     msvcprtd:MSVCP140D.dll
 0000:fffbc000       .debug$S                   00400000     msvcprtd:MSVCP140D.dll
 0000:fffbc000       .debug$S                   00400000     msvcprtd:MSVCP140D.dll
 0000:fffbc000       .debug$S                   00400000     msvcprtd:MSVCP140D.dll
 0000:fffbc000       .debug$S                   00400000     msvcprtd:MSVCP140D.dll
 0000:fffbc000       .debug$S                   00400000     msvcprtd:MSVCP140D.dll
 0000:fffbc000       .debug$S                   00400000     msvcprtd:MSVCP140D.dll
 0000:fffbc000       .debug$S                   00400000     msvcprtd:MSVCP140D.dll
 0000:fffbc000       .debug$S                   00400000     msvcprtd:MSVCP140D.dll
 0000:fffbc000       .debug$S                   00400000     msvcprtd:MSVCP140D.dll
 0000:fffbc000       .debug$S                   00400000     msvcprtd:MSVCP140D.dll
 0000:fffbc000       .debug$S                   00400000     msvcprtd:MSVCP140D.dll
 0000:fffbc000       .debug$S                   00400000     msvcprtd:MSVCP140D.dll
 0000:fffbc000       .debug$S                   00400000     msvcprtd:MSVCP140D.dll
 0000:fffbc000       .debug$S                   00400000     msvcprtd:MSVCP140D.dll
 0000:fffbc000       .debug$S                   00400000     msvcprtd:MSVCP140D.dll
 0000:fffbc000       .debug$S                   00400000     msvcprtd:MSVCP140D.dll
 0000:fffbc000       .debug$S                   00400000     msvcprtd:MSVCP140D.dll
 0000:fffbc000       .debug$S                   00400000     msvcprtd:MSVCP140D.dll
 0000:fffbc000       .debug$S                   00400000     msvcprtd:MSVCP140D.dll
 0000:fffbc000       .debug$S                   00400000     msvcprtd:MSVCP140D.dll
 0000:fffbc000       .debug$S                   00400000     msvcprtd:MSVCP140D.dll
 0000:fffbc000       .debug$S                   00400000     msvcprtd:MSVCP140D.dll
 0000:fffbc000       .debug$S                   00400000     msvcprtd:MSVCP140D.dll
 0000:fffbc000       .debug$S                   00400000     msvcprtd:MSVCP140D.dll
 0000:fffbc000       .debug$S                   00400000     msvcprtd:MSVCP140D.dll
 0000:fffbc000       .debug$S                   00400000     msvcprtd:MSVCP140D.dll
 0000:fffbc000       .debug$S                   00400000     msvcprtd:MSVCP140D.dll
 0000:fffbc000       .debug$S                   00400000     msvcprtd:MSVCP140D.dll
 0000:fffbc000       .debug$S                   00400000     msvcprtd:MSVCP140D.dll
 0000:fffbc000       .debug$S                   00400000     msvcprtd:MSVCP140D.dll
 0000:fffbc000       .debug$S                   00400000     msvcprtd:MSVCP140D.dll
 0000:fffbc000       .debug$S                   00400000     msvcprtd:MSVCP140D.dll
 0000:fffbc000       .debug$S                   00400000     msvcprtd:MSVCP140D.dll
 0000:fffbc000       .debug$S                   00400000     msvcprtd:MSVCP140D.dll
 0000:fffbc000       .debug$S                   00400000     msvcprtd:MSVCP140D.dll
 0000:fffbc000       .debug$S                   00400000     msvcprtd:MSVCP140D.dll
 0000:fffbc000       .debug$S                   00400000     vcruntimed:VCRUNTIME140D.dll
 0000:fffbc000       .debug$S                   00400000     vcruntimed:VCRUNTIME140D.dll
 0000:fffbc000       .debug$S                   00400000     vcruntimed:VCRUNTIME140D.dll
 0000:fffbc000       .debug$S                   00400000     vcruntimed:VCRUNTIME140D.dll
 0000:fffbc000       .debug$S                   00400000     vcruntimed:VCRUNTIME140D.dll
 0000:fffbc000       .debug$S                   00400000     vcruntimed:VCRUNTIME140D.dll
 0000:fffbc000       .debug$S                   00400000     vcruntimed:VCRUNTIME140D.dll
 0000:fffbc000       .debug$S                   00400000     vcruntimed:VCRUNTIME140D.dll
 0000:fffbc000       .debug$S                   00400000     vcruntimed:VCRUNTIME140D.dll
 0000:fffbc000       .debug$S                   00400000     vcruntimed:VCRUNTIME140D.dll
 0000:fffbc000       .debug$S                   00400000     vcruntimed:VCRUNTIME140D.dll
 0000:fffbc000       .debug$S                   00400000     vcruntimed:VCRUNTIME140D.dll
 0000:fffbc000       .debug$S                   00400000     vcruntimed:VCRUNTIME140D.dll
 0000:fffbc000       .debug$S                   00400000     vcruntimed:VCRUNTIME140D.dll
 0000:fffbc000       .debug$S                   00400000     vcruntimed:VCRUNTIME140D.dll
 0000:fffbc000       .debug$S                   00400000     vcruntimed:VCRUNTIME140D.dll
 0000:fffbc000       .debug$S                   00400000     vcruntimed:VCRUNTIME140D.dll
 0000:fffc1000       __guard_fids_??__E_Fac_tidy_reg@std@@YAXXZ 00400000     msvcprtd:locale0_implib.obj
 0000:fffc1000       __guard_fids__             00400000     msvcprtd:locale0_implib.obj
 0000:fffc1000       __guard_fids___except_handler4 00400000     MSVCRTD:chandler4gs.obj
 0000:fffc1000       __guard_fids_?pre_c_initialization@@YAHXZ 00400000     MSVCRTD:exe_main.obj
 0000:fffc1000       __guard_fids__             00400000     MSVCRTD:exe_main.obj
 0000:fffc1000       __guard_fids__             00400000     MSVCRTD:guard_support.obj
 0000:fffc1000       __guard_fids___guard_icall_checks_enforced 00400000     MSVCRTD:guard_support.obj
 0000:fffc1000       __guard_fids___CRT_RTC_INIT 00400000     MSVCRTD:init.obj
 0000:fffc1000       __guard_fids___CRT_RTC_INITW 00400000     MSVCRTD:init.obj
 0000:fffc1000       __guard_fids__             00400000     MSVCRTD:std_type_info_static.obj
 0000:fffc1000       __guard_fids__             00400000     MSVCRTD:throw_bad_alloc.obj
 0000:fffc1000       __guard_fids__             00400000     MSVCRTD:throw_bad_alloc.obj
 0000:fffc1000       __guard_fids__             00400000     MSVCRTD:throw_bad_alloc.obj
 0000:fffc1000       __guard_fids__             00400000     MSVCRTD:throw_bad_alloc.obj
 0000:fffc1000       __guard_fids__             00400000     MSVCRTD:throw_bad_alloc.obj
 0000:fffc1000       __guard_fids__             00400000     MSVCRTD:throw_bad_alloc.obj
 0000:fffc1000       __guard_fids__             00400000     MSVCRTD:throw_bad_alloc.obj
 0000:fffc1000       __guard_fids__             00400000     MSVCRTD:throw_bad_alloc.obj
 0000:fffc1000       __guard_fids____scrt_set_unhandled_exception_filter 00400000     MSVCRTD:utility_desktop.obj
 0000:fffbc000       .debug$S                   00400000     ucrtd:ucrtbased.dll
 0000:fffbc000       .debug$S                   00400000     ucrtd:ucrtbased.dll
 0000:fffbc000       .debug$S                   00400000     ucrtd:ucrtbased.dll
 0000:fffbc000       .debug$S                   00400000     ucrtd:ucrtbased.dll
 0000:fffbc000       .debug$S                   00400000     ucrtd:ucrtbased.dll
 0000:fffbc000       .debug$S                   00400000     ucrtd:ucrtbased.dll
 0000:fffbc000       .debug$S                   00400000     ucrtd:ucrtbased.dll
 0000:fffbc000       .debug$S                   00400000     ucrtd:ucrtbased.dll
 0000:fffbc000       .debug$S                   00400000     ucrtd:ucrtbased.dll
 0000:fffbc000       .debug$S                   00400000     ucrtd:ucrtbased.dll
 0000:fffbc000       .debug$S                   00400000     ucrtd:ucrtbased.dll
 0000:fffbc000       .debug$S                   00400000     ucrtd:ucrtbased.dll
 0000:fffbc000       .debug$S                   00400000     ucrtd:ucrtbased.dll
 0000:fffbc000       .debug$S                   00400000     ucrtd:ucrtbased.dll
 0000:fffbc000       .debug$S                   00400000     ucrtd:ucrtbased.dll
 0000:fffbc000       .debug$S                   00400000     ucrtd:ucrtbased.dll
 0000:fffbc000       .debug$S                   00400000     ucrtd:ucrtbased.dll
 0000:fffbc000       .debug$S                   00400000     ucrtd:ucrtbased.dll
 0000:fffbc000       .debug$S                   00400000     ucrtd:ucrtbased.dll
 0000:fffbc000       .debug$S                   00400000     ucrtd:ucrtbased.dll
 0000:fffbc000       .debug$S                   00400000     ucrtd:ucrtbased.dll
 0000:fffbc000       .debug$S                   00400000     ucrtd:ucrtbased.dll
 0000:fffbc000       .debug$S                   00400000     ucrtd:ucrtbased.dll
 0000:fffbc000       .debug$S                   00400000     ucrtd:ucrtbased.dll
 0000:fffbc000       .debug$S                   00400000     ucrtd:ucrtbased.dll
 0000:fffbc000       .debug$S                   00400000     ucrtd:ucrtbased.dll
 0000:fffbc000       .debug$S                   00400000     ucrtd:ucrtbased.dll
 0000:fffbc000       .debug$S                   00400000     ucrtd:ucrtbased.dll
 0000:fffbc000       .debug$S                   00400000     ucrtd:ucrtbased.dll
 0000:fffbc000       .debug$S                   00400000     ucrtd:ucrtbased.dll
 0000:fffbc000       .debug$S                   00400000     ucrtd:ucrtbased.dll
 0000:fffbc000       .debug$S                   00400000     ucrtd:ucrtbased.dll
 0000:fffbc000       .debug$S                   00400000     ucrtd:ucrtbased.dll
 0000:fffbc000       .debug$S                   00400000     ucrtd:ucrtbased.dll
 0000:fffbc000       .debug$S                   00400000     ucrtd:ucrtbased.dll
 0000:fffbc000       .debug$S                   00400000     ucrtd:ucrtbased.dll
 0000:fffbc000       .debug$S                   00400000     ucrtd:ucrtbased.dll
 0000:fffbc000       .debug$S                   00400000     ucrtd:ucrtbased.dll
 0000:fffbc000       .debug$S                   00400000     ucrtd:ucrtbased.dll
 0000:fffbc000       .debug$S                   00400000     ucrtd:ucrtbased.dll
 0000:fffbc000       .debug$S                   00400000     ucrtd:ucrtbased.dll
 0000:fffbc000       .debug$S                   00400000     ucrtd:ucrtbased.dll
 0000:fffbc000       .debug$S                   00400000     ucrtd:ucrtbased.dll
 0000:fffbc000       .debug$S                   00400000     ucrtd:ucrtbased.dll
 0000:fffbc000       .debug$S                   00400000     ucrtd:ucrtbased.dll
 0000:fffbc000       .debug$S                   00400000     ucrtd:ucrtbased.dll
 0000:fffbc000       .debug$S                   00400000     ucrtd:ucrtbased.dll
 0000:fffbc000       .debug$S                   00400000     ucrtd:ucrtbased.dll
 0000:fffbc000       .debug$S                   00400000     ucrtd:ucrtbased.dll
 0000:fffbc000       .debug$S                   00400000     ucrtd:ucrtbased.dll
 0000:fffbc000       .debug$S                   00400000     ucrtd:ucrtbased.dll
 0000:fffbc000       .debug$S                   00400000     ucrtd:ucrtbased.dll
 0000:fffbc000       .debug$S                   00400000     ucrtd:ucrtbased.dll
 0000:fffbc000       .debug$S                   00400000     ucrtd:ucrtbased.dll
 0000:fffbc000       .debug$S                   00400000     ucrtd:ucrtbased.dll
 0000:fffbc000       .debug$S                   00400000     ucrtd:ucrtbased.dll
 0000:fffbc000       .debug$S                   00400000     ucrtd:ucrtbased.dll
 0000:fffc1004       __guard_fids__             00400004     MSVCRTD:exe_main.obj
 0002:fffef008       __unwindfunclet$??0?$basic_string@DU?$char_traits@D@std@@V?$allocator@D@2@@std@@QAE@ABV01@IIABV?$allocator@D@1@@Z$1 00400008 f   StaticLib:trim.obj
 0000:fffc1008       __guard_fids__             00400008     MSVCRTD:exe_main.obj
 0003:fffcc010       __ehfuncinfo$??0?$basic_string@DU?$char_traits@D@std@@V?$allocator@D@2@@std@@QAE@ABV01@IIABV?$allocator@D@1@@Z 00400010     StaticLib:trim.obj
 0002:fffef010       __ehhandler$??0?$basic_string@DU?$char_traits@D@std@@V?$allocator@D@2@@std@@QAE@ABV01@IIABV?$allocator@D@1@@Z 00400010 f   StaticLib:trim.obj
 0002:fffef0d4       $LN8                       004000d4     StaticLib:trim.obj
 0002:fffef0dc       $LN7                       004000dc     StaticLib:trim.obj
 0002:fffef0e8       $LN5                       004000e8     StaticLib:trim.obj
 0002:fffef0f0       $LN6                       004000f0     StaticLib:trim.obj
 0002:fffef0f4       $LN10                      004000f4     StaticLib:trim.obj
 0002:fffef0f8       $LN5                       004000f8     StaticLib:trim.obj
 0002:fffef0fc       $LN9                       004000fc     StaticLib:trim.obj
 0002:fffef104       $LN3                       00400104     StaticLib:trim.obj
 0002:fffef108       $LN7                       00400108     StaticLib:trim.obj
 0002:fffef10c       $LN9                       0040010c     StaticLib:trim.obj
 0002:fffef114       $LN8                       00400114     StaticLib:trim.obj
 0002:fffef124       $LN8                       00400124     StaticLib:trim.obj
 0002:fffef12c       $LN6                       0040012c     StaticLib:trim.obj
 0002:fffef12c       $LN7                       0040012c     StaticLib:trim.obj
 0002:fffef133       $LN5                       00400133     StaticLib:trim.obj
 0002:fffef138       $LN6                       00400138     StaticLib:trim.obj
 0002:00001af0       ??__E_Fac_tidy_reg@std@@YAXXZ 00412af0 f   msvcprtd:locale0_implib.obj
 0002:0000442f       __catch$??$?6U?$char_traits@D@std@@@std@@YAAAV?$basic_ostream@DU?$char_traits@D@std@@@0@AAV10@D@Z$0 0041542f f i Source.obj
 0002:00004500       $LN28                      00415500     Source.obj
 0002:00004508       $LN27                      00415508     Source.obj
 0002:00004514       $LN25                      00415514     Source.obj
 0002:00004a24       __catch$??$?6U?$char_traits@D@std@@@std@@YAAAV?$basic_ostream@DU?$char_traits@D@std@@@0@AAV10@PBD@Z$0 00415a24 f i Source.obj
 0002:00004ad4       $LN32                      00415ad4     Source.obj
 0002:00004adc       $LN31                      00415adc     Source.obj
 0002:00004ae8       $LN29                      00415ae8     Source.obj
 0002:00005078       $LN5                       00416078     Source.obj
 0002:00005080       $LN4                       00416080     Source.obj
 0002:0000508c       $LN3                       0041608c     Source.obj
 0002:00005958       $LN7                       00416958     Source.obj
 0002:00005960       $LN6                       00416960     Source.obj
 0002:0000596c       $LN5                       0041696c     Source.obj
 0002:00005cc0       $LN6                       00416cc0     Source.obj
 0002:00005cc8       $LN5                       00416cc8     Source.obj
 0002:00005cd4       $LN4                       00416cd4     Source.obj
 0002:00005e24       $LN9                       00416e24     Source.obj
 0002:00005e2c       $LN8                       00416e2c     Source.obj
 0002:00005e38       $LN7                       00416e38     Source.obj
 0002:0000658c       __catch$??$_Insert_string@DU?$char_traits@D@std@@I@std@@YAAAV?$basic_ostream@DU?$char_traits@D@std@@@0@AAV10@QBDI@Z$0 0041758c f i Source.obj
 0002:0000663c       $LN30                      0041763c     Source.obj
 0002:00006644       $LN29                      00417644     Source.obj
 0002:00006650       $LN27                      00417650     Source.obj
 0002:00006750       $LN6                       00417750     Source.obj
 0002:00006758       $LN5                       00417758     Source.obj
 0002:00006764       $LN3                       00417764     Source.obj
 0002:00006bac       $LN8                       00417bac     Source.obj
 0002:00006bb4       $LN7                       00417bb4     Source.obj
 0002:00006bc0       $LN6                       00417bc0     Source.obj
 0002:00006da0       $LN8                       00417da0     Source.obj
 0002:00006da8       $LN7                       00417da8     Source.obj
 0002:00006db4       $LN6                       00417db4     Source.obj
 0002:0000715c       $LN7                       0041815c     Source.obj
 0002:00007164       $LN6                       00418164     Source.obj
 0002:00007170       $LN5                       00418170     Source.obj
 0002:00008b60       __catch$??$getline@DU?$char_traits@D@std@@V?$allocator@D@2@@std@@YAAAV?$basic_istream@DU?$char_traits@D@std@@@0@$$QAV10@AAV?$basic_string@DU?$char_traits@D@std@@V?$allocator@D@2@@0@D@Z$0 00419b60 f i Source.obj
 0002:00008c20       $LN25                      00419c20     Source.obj
 0002:00008c28       $LN24                      00419c28     Source.obj
 0002:00008c4c       $LN22                      00419c4c     Source.obj
 0002:00008c52       $LN21                      00419c52     Source.obj
 0002:00008c5d       $LN20                      00419c5d     Source.obj
 0002:00008e7c       $LN8                       00419e7c     Source.obj
 0002:00008e84       $LN7                       00419e84     Source.obj
 0002:00008e90       $LN6                       00419e90     Source.obj
 0002:0000934c       $LN15                      0041a34c     Source.obj
 0002:00009354       $LN14                      0041a354     Source.obj
 0002:00009378       $LN12                      0041a378     Source.obj
 0002:00009385       $LN11                      0041a385     Source.obj
 0002:0000938c       $LN10                      0041a38c     Source.obj
 0002:0000a2e0       $LN9                       0041b2e0     Source.obj
 0002:0000a2e8       $LN8                       0041b2e8     Source.obj
 0002:0000a300       $LN6                       0041b300     Source.obj
 0002:0000a307       $LN5                       0041b307     Source.obj
 0002:0000a46c       $LN9                       0041b46c     Source.obj
 0002:0000a474       $LN8                       0041b474     Source.obj
 0002:0000a48c       $LN6                       0041b48c     Source.obj
 0002:0000a493       $LN5                       0041b493     Source.obj
 0002:0000b7d4       $LN6                       0041c7d4     Source.obj
 0002:0000b7dc       $LN5                       0041c7dc     Source.obj
 0002:0000b7e8       $LN3                       0041c7e8     Source.obj
 0002:0000bf10       $LN6                       0041cf10     Source.obj
 0002:0000bf18       $LN5                       0041cf18     Source.obj
 0002:0000bf24       $LN3                       0041cf24     Source.obj
 0002:0000c554       $LN6                       0041d554     Source.obj
 0002:0000c55c       $LN5                       0041d55c     Source.obj
 0002:0000c568       $LN3                       0041d568     Source.obj
 0002:0000c958       $LN6                       0041d958     Source.obj
 0002:0000c960       $LN5                       0041d960     Source.obj
 0002:0000c96c       $LN3                       0041d96c     Source.obj
 0002:0000d1a4       $LN9                       0041e1a4     Source.obj
 0002:0000d1ac       $LN8                       0041e1ac     Source.obj
 0002:0000d1b8       $LN6                       0041e1b8     Source.obj
 0002:0000da18       $LN9                       0041ea18     Source.obj
 0002:0000da20       $LN8                       0041ea20     Source.obj
 0002:0000da2c       $LN6                       0041ea2c     Source.obj
 0002:0000e660       $LN10                      0041f660     Source.obj
 0002:0000e668       $LN9                       0041f668     Source.obj
 0002:0000e680       $LN7                       0041f680     Source.obj
 0002:0000e686       $LN6                       0041f686     Source.obj
 0002:0000e7d0       $LN8                       0041f7d0     Source.obj
 0002:0000e7d8       $LN7                       0041f7d8     Source.obj
 0002:0000e7f0       $LN5                       0041f7f0     Source.obj
 0002:0000e7f7       $LN4                       0041f7f7     Source.obj
 0002:0000eab4       $LN8                       0041fab4     Source.obj
 0002:0000eabc       $LN7                       0041fabc     Source.obj
 0002:0000eac8       $LN5                       0041fac8     Source.obj
 0002:0000ee14       $LN6                       0041fe14     Source.obj
 0002:0000ee1c       $LN5                       0041fe1c     Source.obj
 0002:0000ee28       $LN4                       0041fe28     Source.obj
 0002:0000f0cc       $LN18                      004200cc     Source.obj
 0002:0000f0d4       $LN17                      004200d4     Source.obj
 0002:0000f0ec       $LN16                      004200ec     Source.obj
 0002:0000f0f2       $LN15                      004200f2     Source.obj
 0002:0000fd78       $LN10                      00420d78     Source.obj
 0002:0000fd80       $LN9                       00420d80     Source.obj
 0002:0000fda4       $LN8                       00420da4     Source.obj
 0002:0000fda8       $LN7                       00420da8     Source.obj
 0002:0000fdac       $LN6                       00420dac     Source.obj
 0002:00010724       $LN10                      00421724     Source.obj
 0002:0001072c       $LN9                       0042172c     Source.obj
 0002:00010738       $LN7                       00421738     Source.obj
 0002:00010e60       $LN8                       00421e60     Source.obj
 0002:00010e68       $LN7                       00421e68     Source.obj
 0002:00010e74       $LN5                       00421e74     Source.obj
 0002:000128b8       $LN35                      004238b8     Source.obj
 0002:00012b4c       $LN23                      00423b4c     Source.obj
 0002:00012b54       $LN22                      00423b54     Source.obj
 0002:00012b84       $LN21                      00423b84     Source.obj
 0002:00012b8a       $LN20                      00423b8a     Source.obj
 0002:00012b8f       $LN19                      00423b8f     Source.obj
 0002:00012b93       $LN18                      00423b93     Source.obj
 0002:00013b94       $LN7                       00424b94     Source.obj
 0002:00013b9c       $LN6                       00424b9c     Source.obj
 0002:00013ba8       $LN5                       00424ba8     Source.obj
 0002:000146a0       $LN23                      004256a0     Source.obj
 0002:000146a8       $LN22                      004256a8     Source.obj
 0002:000146b4       $LN20                      004256b4     Source.obj
 0002:0001484c       $LN8                       0042584c     Source.obj
 0002:00014854       $LN7                       00425854     Source.obj
 0002:00014860       $LN6                       00425860     Source.obj
 0002:00014ba8       $LN28                      00425ba8     Source.obj
 0002:00014bb0       $LN27                      00425bb0     Source.obj
 0002:00014bec       $LN25                      00425bec     Source.obj
 0002:00014bf2       $LN24                      00425bf2     Source.obj
 0002:00014bf6       $LN23                      00425bf6     Source.obj
 0002:00014bfb       $LN22                      00425bfb     Source.obj
 0002:00014c00       $LN21                      00425c00     Source.obj
 0002:00014fdc       $LN10                      00425fdc     Source.obj
 0002:00014fe4       $LN9                       00425fe4     Source.obj
 0002:00014ff0       $LN8                       00425ff0     Source.obj
 0002:00015398       $LN9                       00426398     Source.obj
 0002:000153a0       $LN8                       004263a0     Source.obj
 0002:000153ac       $LN7                       004263ac     Source.obj
 0002:00016854       $LN15                      00427854     Source.obj
 0002:0001685c       $LN14                      0042785c     Source.obj
 0002:00016874       $LN13                      00427874     Source.obj
 0002:0001687f       $LN12                      0042787f     Source.obj
 0002:00016aa6       __catch$_main$0            00427aa6 f   Source.obj
 0002:00016b38       $LN13                      00427b38     Source.obj
 0002:00016b40       $LN12                      00427b40     Source.obj
 0002:00016b58       $LN10                      00427b58     Source.obj
 0002:00016b5a       $LN9                       00427b5a     Source.obj
 0002:0001782c       $LN12                      0042882c     StaticLib:trim.obj
 0002:00017834       $LN11                      00428834     StaticLib:trim.obj
 0002:00017840       $LN9                       00428840     StaticLib:trim.obj
 0002:00017af8       $LN13                      00428af8     StaticLib:trim.obj
 0002:00017b00       $LN12                      00428b00     StaticLib:trim.obj
 0002:00017b0c       $LN10                      00428b0c     StaticLib:trim.obj
 0002:00018ae0       ?pre_c_initialization@@YAHXZ 00429ae0 f   MSVCRTD:exe_main.obj
 0002:00018bc0       ?post_pgo_initialization@@YAHXZ 00429bc0 f   MSVCRTD:exe_main.obj
 0002:00018bd0       ?pre_cpp_initialization@@YAXXZ 00429bd0 f   MSVCRTD:exe_main.obj
 0002:00018bf0       ?__scrt_common_main@@YAHXZ 00429bf0 f   MSVCRTD:exe_main.obj
 0002:00018c10       ?__scrt_common_main_seh@@YAHXZ 00429c10 f   MSVCRTD:exe_main.obj
 0002:00018ee0       ?invoke_main@@YAHXZ        00429ee0 f   MSVCRTD:exe_main.obj
 0002:00018fa0       ?find_pe_section@@YAPAU_IMAGE_SECTION_HEADER@@QAEI@Z 00429fa0 f   MSVCRTD:utility.obj
 0002:00019050       ?is_potentially_valid_image_base@@YA_NQAX@Z 0042a050 f   MSVCRTD:utility.obj
 0002:000198a0       ?DebuggerProbe@@YA_NK@Z    0042a8a0 f   MSVCRTD:error.obj
 0002:000198f0       ?DebuggerRuntime@@YA_NKHPAXPB_W@Z 0042a8f0 f   MSVCRTD:error.obj
 0002:00019bc0       ?_getMemBlockDataString@@YAXPAD0PBDI@Z 0042abc0 f   MSVCRTD:error.obj
 0002:00019c50       ?_strlen_priv@@YAIPBD@Z    0042ac50 f   MSVCRTD:error.obj
 0002:00019c70       ?failwithmessage@@YAXPAXHHPBD@Z 0042ac70 f   MSVCRTD:error.obj
 0002:00019ef0       ?notify_debugger@@YAXABUtagEXCEPTION_VISUALCPP_DEBUG_INFO@@@Z 0042aef0 f   MSVCRTD:error.obj
 0002:0001a5f0       ___get_entropy             0042b5f0 f   MSVCRTD:gs_support.obj
 0002:0001b140       ?GetPdbDll@@YAPAUHINSTANCE__@@XZ 0042c140 f   MSVCRTD:pdblkup.obj
 0002:0001b2d0       ?GetPdbDllFromInstallPath@@YAPAUHINSTANCE__@@XZ 0042c2d0 f   MSVCRTD:pdblkup.obj
 0002:0001b5c0       ?GetPdbDllPathFromFilePath@@YAHPB_WPA_WI@Z 0042c5c0 f   MSVCRTD:pdblkup.obj
 0002:0001ce04       $LN59                      0042de04     Source.obj
 0002:0001ce0c       $LN58                      0042de0c     Source.obj
 0002:0001ce30       $LN56                      0042de30     Source.obj
 0002:0001ce32       $LN55                      0042de32     Source.obj
 0002:0001ce39       $LN54                      0042de39     Source.obj
 0002:0001d590       __ehhandler$??$?0AAPAU?$_Tree_node@U?$pair@$$CBV?$basic_string@DU?$char_traits@D@std@@V?$allocator@D@2@@std@@PAVAccount@@@std@@PAX@std@@_N$0A@@?$pair@PAU?$_Tree_node@U?$pair@$$CBV?$basic_string@DU?$char_traits@D@std@@V?$allocator@D@2@@std@@PAVAccount@@@std@@PAX@std@@_N@std@@QAE@AAPAU?$_Tree_node@U?$pair@$$CBV?$basic_string@DU?$char_traits@D@std@@V?$allocator@D@2@@std@@PAVAccount@@@std@@PAX@1@$$QA_N@Z 0042e590 f   Source.obj
 0002:0001d5c0       __ehhandler$??$?0ABQAU?$_Tree_node@U?$pair@$$CBV?$basic_string@DU?$char_traits@D@std@@V?$allocator@D@2@@std@@PAVAccount@@@std@@PAX@std@@_N$0A@@?$pair@PAU?$_Tree_node@U?$pair@$$CBV?$basic_string@DU?$char_traits@D@std@@V?$allocator@D@2@@std@@PAVAccount@@@std@@PAX@std@@_N@std@@QAE@ABQAU?$_Tree_node@U?$pair@$$CBV?$basic_string@DU?$char_traits@D@std@@V?$allocator@D@2@@std@@PAVAccount@@@std@@PAX@1@$$QA_N@Z 0042e5c0 f   Source.obj
 0002:0001d5f0       __unwindfunclet$??$?0ABUpiecewise_construct_t@std@@V?$tuple@$$QAV?$basic_string@DU?$char_traits@D@std@@V?$allocator@D@2@@std@@@1@V?$tuple@$$V@1@@?$_Tree_temp_node@V?$allocator@U?$_Tree_node@U?$pair@$$CBV?$basic_string@DU?$char_traits@D@std@@V?$allocator@D@2@@std@@PAVAccount@@@std@@PAX@std@@@std@@@std@@QAE@AAV?$allocator@U?$_Tree_node@U?$pair@$$CBV?$basic_string@DU?$char_traits@D@std@@V?$allocator@D@2@@std@@PAVAccount@@@std@@PAX@std@@@1@PAU?$_Tree_node@U?$pair@$$CBV?$basic_string@DU?$char_traits@D@std@@V?$allocator@D@2@@std@@PAVAccount@@@std@@PAX@1@ABUpiecewise_construct_t@1@$$QAV?$tuple@$$QAV?$basic_string@DU?$char_traits@D@std@@V?$allocator@D@2@@std@@@1@$$QAV?$tuple@$$V@1@@Z$0 0042e5f0 f   Source.obj
 0002:0001d5f8       __ehhandler$??$?0ABUpiecewise_construct_t@std@@V?$tuple@$$QAV?$basic_string@DU?$char_traits@D@std@@V?$allocator@D@2@@std@@@1@V?$tuple@$$V@1@@?$_Tree_temp_node@V?$allocator@U?$_Tree_node@U?$pair@$$CBV?$basic_string@DU?$char_traits@D@std@@V?$allocator@D@2@@std@@PAVAccount@@@std@@PAX@std@@@std@@@std@@QAE@AAV?$allocator@U?$_Tree_node@U?$pair@$$CBV?$basic_string@DU?$char_traits@D@std@@V?$allocator@D@2@@std@@PAVAccount@@@std@@PAX@std@@@1@PAU?$_Tree_node@U?$pair@$$CBV?$basic_string@DU?$char_traits@D@std@@V?$allocator@D@2@@std@@PAVAccount@@@std@@PAX@1@ABUpiecewise_construct_t@1@$$QAV?$tuple@$$QAV?$basic_string@DU?$char_traits@D@std@@V?$allocator@D@2@@std@@@1@$$QAV?$tuple@$$V@1@@Z 0042e5f8 f   Source.obj
 0002:0001d620       __ehhandler$??$?0D@?$allocator@U_Container_proxy@std@@@std@@QAE@ABV?$allocator@D@1@@Z 0042e620 f   Source.obj
 0002:0001d650       __ehhandler$??$?0PAU?$_Tree_node@U?$pair@$$CBV?$basic_string@DU?$char_traits@D@std@@V?$allocator@D@2@@std@@PAVAccount@@@std@@PAX@std@@_N$0A@@?$pair@PAU?$_Tree_node@U?$pair@$$CBV?$basic_string@DU?$char_traits@D@std@@V?$allocator@D@2@@std@@PAVAccount@@@std@@PAX@std@@_N@std@@QAE@$$QAPAU?$_Tree_node@U?$pair@$$CBV?$basic_string@DU?$char_traits@D@std@@V?$allocator@D@2@@std@@PAVAccount@@@std@@PAX@1@$$QA_N@Z 0042e650 f   Source.obj
 0002:0001d680       __ehhandler$??$?0U?$_Tree_node@U?$pair@$$CBV?$basic_string@DU?$char_traits@D@std@@V?$allocator@D@2@@std@@PAVAccount@@@std@@PAX@std@@@?$allocator@U_Container_proxy@std@@@std@@QAE@ABV?$allocator@U?$_Tree_node@U?$pair@$$CBV?$basic_string@DU?$char_traits@D@std@@V?$allocator@D@2@@std@@PAVAccount@@@std@@PAX@std@@@1@@Z 0042e680 f   Source.obj
 0002:0001d6b0       __ehhandler$??$?0U?$default_delete@V_Facet_base@std@@@std@@$0A@@?$unique_ptr@V_Facet_base@std@@U?$default_delete@V_Facet_base@std@@@2@@std@@QAE@PAV_Facet_base@1@@Z 0042e6b0 f   Source.obj
 0002:0001d6e0       __unwindfunclet$??$?0U?$pair@$$CBV?$basic_string@DU?$char_traits@D@std@@V?$allocator@D@2@@std@@PAVAccount@@@std@@@?$_Tree_temp_node@V?$allocator@U?$_Tree_node@U?$pair@$$CBV?$basic_string@DU?$char_traits@D@std@@V?$allocator@D@2@@std@@PAVAccount@@@std@@PAX@std@@@std@@@std@@QAE@AAV?$allocator@U?$_Tree_node@U?$pair@$$CBV?$basic_string@DU?$char_traits@D@std@@V?$allocator@D@2@@std@@PAVAccount@@@std@@PAX@std@@@1@PAU?$_Tree_node@U?$pair@$$CBV?$basic_string@DU?$char_traits@D@std@@V?$allocator@D@2@@std@@PAVAccount@@@std@@PAX@1@$$QAU?$pair@$$CBV?$basic_string@DU?$char_traits@D@std@@V?$allocator@D@2@@std@@PAVAccount@@@1@@Z$0 0042e6e0 f   Source.obj
 0002:0001d6e8       __ehhandler$??$?0U?$pair@$$CBV?$basic_string@DU?$char_traits@D@std@@V?$allocator@D@2@@std@@PAVAccount@@@std@@@?$_Tree_temp_node@V?$allocator@U?$_Tree_node@U?$pair@$$CBV?$basic_string@DU?$char_traits@D@std@@V?$allocator@D@2@@std@@PAVAccount@@@std@@PAX@std@@@std@@@std@@QAE@AAV?$allocator@U?$_Tree_node@U?$pair@$$CBV?$basic_string@DU?$char_traits@D@std@@V?$allocator@D@2@@std@@PAVAccount@@@std@@PAX@std@@@1@PAU?$_Tree_node@U?$pair@$$CBV?$basic_string@DU?$char_traits@D@std@@V?$allocator@D@2@@std@@PAVAccount@@@std@@PAX@1@$$QAU?$pair@$$CBV?$basic_string@DU?$char_traits@D@std@@V?$allocator@D@2@@std@@PAVAccount@@@1@@Z 0042e6e8 f   Source.obj
 0002:0001d710       __ehhandler$??$?0U_Exact_args_t@std@@$0A@@?$tuple@$$V@std@@QAE@U_Exact_args_t@1@@Z 0042e710 f   Source.obj
 0002:0001d740       __ehhandler$??$?0V?$_Tree_iterator@V?$_Tree_val@U?$_Tree_simple_types@U?$pair@$$CBV?$basic_string@DU?$char_traits@D@std@@V?$allocator@D@2@@std@@PAVAccount@@@std@@@std@@@std@@@std@@AB_N$0A@@?$pair@V?$_Tree_iterator@V?$_Tree_val@U?$_Tree_simple_types@U?$pair@$$CBV?$basic_string@DU?$char_traits@D@std@@V?$allocator@D@2@@std@@PAVAccount@@@std@@@std@@@std@@@std@@_N@std@@QAE@$$QAV?$_Tree_iterator@V?$_Tree_val@U?$_Tree_simple_types@U?$pair@$$CBV?$basic_string@DU?$char_traits@D@std@@V?$allocator@D@2@@std@@PAVAccount@@@std@@@std@@@std@@@1@AB_N@Z 0042e740 f   Source.obj
 0002:0001d770       __ehhandler$??$?0V?$basic_string@DU?$char_traits@D@std@@V?$allocator@D@2@@std@@$$V$0A@@?$tuple@$$QAV?$basic_string@DU?$char_traits@D@std@@V?$allocator@D@2@@std@@@std@@QAE@$$QAV?$basic_string@DU?$char_traits@D@std@@V?$allocator@D@2@@1@@Z 0042e770 f   Source.obj
 0002:0001d7a0       __ehhandler$??$?0V?$basic_string@DU?$char_traits@D@std@@V?$allocator@D@2@@std@@AAPAVAccount@@$0A@@?$pair@$$CBV?$basic_string@DU?$char_traits@D@std@@V?$allocator@D@2@@std@@PAVAccount@@@std@@QAE@$$QAV?$basic_string@DU?$char_traits@D@std@@V?$allocator@D@2@@1@AAPAVAccount@@@Z 0042e7a0 f   Source.obj
 0002:0001d7d0       __unwindfunclet$??$?6U?$char_traits@D@std@@@std@@YAAAV?$basic_ostream@DU?$char_traits@D@std@@@0@AAV10@D@Z$2 0042e7d0 f   Source.obj
 0002:0001d7d8       __ehhandler$??$?6U?$char_traits@D@std@@@std@@YAAAV?$basic_ostream@DU?$char_traits@D@std@@@0@AAV10@D@Z 0042e7d8 f   Source.obj
 0002:0001d810       __unwindfunclet$??$?6U?$char_traits@D@std@@@std@@YAAAV?$basic_ostream@DU?$char_traits@D@std@@@0@AAV10@PBD@Z$2 0042e810 f   Source.obj
 0002:0001d818       __ehhandler$??$?6U?$char_traits@D@std@@@std@@YAAAV?$basic_ostream@DU?$char_traits@D@std@@@0@AAV10@PBD@Z 0042e818 f   Source.obj
 0002:0001d850       __ehhandler$??$?MDU?$char_traits@D@std@@V?$allocator@D@1@@std@@YA_NABV?$basic_string@DU?$char_traits@D@std@@V?$allocator@D@2@@0@0@Z 0042e850 f   Source.obj
 0002:0001d880       __ehhandler$??$_Construct_in_place@PADABQAD@std@@YAXAAPADABQAD@Z 0042e880 f   Source.obj
 0002:0001d8b0       __ehhandler$??$_Construct_in_place@PAU?$_Tree_node@U?$pair@$$CBV?$basic_string@DU?$char_traits@D@std@@V?$allocator@D@2@@std@@PAVAccount@@@std@@PAX@std@@AAPAU12@@std@@YAXAAPAU?$_Tree_node@U?$pair@$$CBV?$basic_string@DU?$char_traits@D@std@@V?$allocator@D@2@@std@@PAVAccount@@@std@@PAX@0@0@Z 0042e8b0 f   Source.obj
 0002:0001d8e0       __ehhandler$??$_Construct_in_place@PAU?$_Tree_node@U?$pair@$$CBV?$basic_string@DU?$char_traits@D@std@@V?$allocator@D@2@@std@@PAVAccount@@@std@@PAX@std@@ABQAU12@@std@@YAXAAPAU?$_Tree_node@U?$pair@$$CBV?$basic_string@DU?$char_traits@D@std@@V?$allocator@D@2@@std@@PAVAccount@@@std@@PAX@0@ABQAU10@@Z 0042e8e0 f   Source.obj
 0002:0001d910       __ehhandler$??$_Construct_in_place@U_Container_proxy@std@@PAU_Container_base12@2@@std@@YAXAAU_Container_proxy@0@$$QAPAU_Container_base12@0@@Z 0042e910 f   Source.obj
 0002:0001d940       __ehhandler$??$_Deallocate@$07$0A@@std@@YAXPAXI@Z 0042e940 f   Source.obj
 0002:0001d970       __ehhandler$??$_Deallocate_plain@V?$allocator@U_Container_proxy@std@@@std@@@std@@YAXAAV?$allocator@U_Container_proxy@std@@@0@QAU_Container_proxy@0@@Z 0042e970 f   Source.obj
 0002:0001d9a0       __ehhandler$??$_Delete_plain_internal@V?$allocator@U_Container_proxy@std@@@std@@@std@@YAXAAV?$allocator@U_Container_proxy@std@@@0@QAU_Container_proxy@0@@Z 0042e9a0 f   Source.obj
 0002:0001d9d0       __ehhandler$??$_Destroy_in_place@PAD@std@@YAXAAPAD@Z 0042e9d0 f   Source.obj
 0002:0001da00       __ehhandler$??$_Destroy_in_place@PAU?$_Tree_node@U?$pair@$$CBV?$basic_string@DU?$char_traits@D@std@@V?$allocator@D@2@@std@@PAVAccount@@@std@@PAX@std@@@std@@YAXAAPAU?$_Tree_node@U?$pair@$$CBV?$basic_string@DU?$char_traits@D@std@@V?$allocator@D@2@@std@@PAVAccount@@@std@@PAX@0@@Z 0042ea00 f   Source.obj
 0002:0001da30       __ehhandler$??$_Erase_head@V?$allocator@U?$_Tree_node@U?$pair@$$CBV?$basic_string@DU?$char_traits@D@std@@V?$allocator@D@2@@std@@PAVAccount@@@std@@PAX@std@@@std@@@?$_Tree_val@U?$_Tree_simple_types@U?$pair@$$CBV?$basic_string@DU?$char_traits@D@std@@V?$allocator@D@2@@std@@PAVAccount@@@std@@@std@@@std@@QAEXAAV?$allocator@U?$_Tree_node@U?$pair@$$CBV?$basic_string@DU?$char_traits@D@std@@V?$allocator@D@2@@std@@PAVAccount@@@std@@PAX@std@@@1@@Z 0042ea30 f   Source.obj
 0002:0001da60       __ehhandler$??$_Erase_tree@V?$allocator@U?$_Tree_node@U?$pair@$$CBV?$basic_string@DU?$char_traits@D@std@@V?$allocator@D@2@@std@@PAVAccount@@@std@@PAX@std@@@std@@@?$_Tree_val@U?$_Tree_simple_types@U?$pair@$$CBV?$basic_string@DU?$char_traits@D@std@@V?$allocator@D@2@@std@@PAVAccount@@@std@@@std@@@std@@QAEXAAV?$allocator@U?$_Tree_node@U?$pair@$$CBV?$basic_string@DU?$char_traits@D@std@@V?$allocator@D@2@@std@@PAVAccount@@@std@@PAX@std@@@1@PAU?$_Tree_node@U?$pair@$$CBV?$basic_string@DU?$char_traits@D@std@@V?$allocator@D@2@@std@@PAVAccount@@@std@@PAX@1@@Z 0042ea60 f   Source.obj
 0002:0001da90       __ehhandler$??$_Freenode0@V?$allocator@U?$_Tree_node@U?$pair@$$CBV?$basic_string@DU?$char_traits@D@std@@V?$allocator@D@2@@std@@PAVAccount@@@std@@PAX@std@@@std@@@?$_Tree_node@U?$pair@$$CBV?$basic_string@DU?$char_traits@D@std@@V?$allocator@D@2@@std@@PAVAccount@@@std@@PAX@std@@SAXAAV?$allocator@U?$_Tree_node@U?$pair@$$CBV?$basic_string@DU?$char_traits@D@std@@V?$allocator@D@2@@std@@PAVAccount@@@std@@PAX@std@@@1@PAU01@@Z 0042ea90 f   Source.obj
 0002:0001dac0       __ehhandler$??$_Freenode@V?$allocator@U?$_Tree_node@U?$pair@$$CBV?$basic_string@DU?$char_traits@D@std@@V?$allocator@D@2@@std@@PAVAccount@@@std@@PAX@std@@@std@@@?$_Tree_node@U?$pair@$$CBV?$basic_string@DU?$char_traits@D@std@@V?$allocator@D@2@@std@@PAVAccount@@@std@@PAX@std@@SAXAAV?$allocator@U?$_Tree_node@U?$pair@$$CBV?$basic_string@DU?$char_traits@D@std@@V?$allocator@D@2@@std@@PAVAccount@@@std@@PAX@std@@@1@PAU01@@Z 0042eac0 f   Source.obj
 0002:0001daf0       __unwindfunclet$??$_Insert_string@DU?$char_traits@D@std@@I@std@@YAAAV?$basic_ostream@DU?$char_traits@D@std@@@0@AAV10@QBDI@Z$2 0042eaf0 f   Source.obj
 0002:0001daf8       __ehhandler$??$_Insert_string@DU?$char_traits@D@std@@I@std@@YAAAV?$basic_ostream@DU?$char_traits@D@std@@@0@AAV10@QBDI@Z 0042eaf8 f   Source.obj
 0002:0001db30       __ehhandler$??$_Max_value@I@std@@YAABIABI0@Z 0042eb30 f   Source.obj
 0002:0001db60       __ehhandler$??$_Min_value@I@std@@YAABIABI0@Z 0042eb60 f   Source.obj
 0002:0001db90       __ehhandler$??$_Pocca@V?$allocator@D@std@@@std@@YAXAAV?$allocator@D@0@ABV10@@Z 0042eb90 f   Source.obj
 0002:0001dbc0       __ehhandler$??$_Traits_compare@U?$char_traits@D@std@@@std@@YAHQBDI0I@Z 0042ebc0 f   Source.obj
 0002:0001dbf0       __ehhandler$??$_Traits_equal@U?$char_traits@D@std@@@std@@YA_NQBDI0I@Z 0042ebf0 f   Source.obj
 0002:0001dc20       __ehhandler$??$addressof@$$CBV?$_String_val@U?$_Simple_types@D@std@@@std@@@std@@YAPBV?$_String_val@U?$_Simple_types@D@std@@@0@ABV10@@Z 0042ec20 f   Source.obj
 0002:0001dc50       __ehhandler$??$addressof@$$CBV?$_Tree_val@U?$_Tree_simple_types@U?$pair@$$CBV?$basic_string@DU?$char_traits@D@std@@V?$allocator@D@2@@std@@PAVAccount@@@std@@@std@@@std@@@std@@YAPBV?$_Tree_val@U?$_Tree_simple_types@U?$pair@$$CBV?$basic_string@DU?$char_traits@D@std@@V?$allocator@D@2@@std@@PAVAccount@@@std@@@std@@@0@ABV10@@Z 0042ec50 f   Source.obj
 0002:0001dc80       __ehhandler$??$addressof@$$CBV?$basic_string@DU?$char_traits@D@std@@V?$allocator@D@2@@std@@@std@@YAPBV?$basic_string@DU?$char_traits@D@std@@V?$allocator@D@2@@0@ABV10@@Z 0042ec80 f   Source.obj
 0002:0001dcb0       __ehhandler$??$addressof@$$CBV?$codecvt@DDU_Mbstatet@@@std@@@std@@YAPBV?$codecvt@DDU_Mbstatet@@@0@ABV10@@Z 0042ecb0 f   Source.obj
 0002:0001dce0       __ehhandler$??$addressof@PAD@std@@YAPAPADAAPAD@Z 0042ece0 f   Source.obj
 0002:0001dd10       __ehhandler$??$addressof@PAU?$_Tree_node@U?$pair@$$CBV?$basic_string@DU?$char_traits@D@std@@V?$allocator@D@2@@std@@PAVAccount@@@std@@PAX@std@@@std@@YAPAPAU?$_Tree_node@U?$pair@$$CBV?$basic_string@DU?$char_traits@D@std@@V?$allocator@D@2@@std@@PAVAccount@@@std@@PAX@0@AAPAU10@@Z 0042ed10 f   Source.obj
 0002:0001dd40       __ehhandler$??$addressof@U?$pair@$$CBV?$basic_string@DU?$char_traits@D@std@@V?$allocator@D@2@@std@@PAVAccount@@@std@@@std@@YAPAU?$pair@$$CBV?$basic_string@DU?$char_traits@D@std@@V?$allocator@D@2@@std@@PAVAccount@@@0@AAU10@@Z 0042ed40 f   Source.obj
 0002:0001dd70       __ehhandler$??$addressof@U_Container_base12@std@@@std@@YAPAU_Container_base12@0@AAU10@@Z 0042ed70 f   Source.obj
 0002:0001dda0       __ehhandler$??$addressof@U_Container_proxy@std@@@std@@YAPAU_Container_proxy@0@AAU10@@Z 0042eda0 f   Source.obj
 0002:0001ddd0       __ehhandler$??$addressof@V?$_String_val@U?$_Simple_types@D@std@@@std@@@std@@YAPAV?$_String_val@U?$_Simple_types@D@std@@@0@AAV10@@Z 0042edd0 f   Source.obj
 0002:0001de00       __ehhandler$??$addressof@V?$_Tree_val@U?$_Tree_simple_types@U?$pair@$$CBV?$basic_string@DU?$char_traits@D@std@@V?$allocator@D@2@@std@@PAVAccount@@@std@@@std@@@std@@@std@@YAPAV?$_Tree_val@U?$_Tree_simple_types@U?$pair@$$CBV?$basic_string@DU?$char_traits@D@std@@V?$allocator@D@2@@std@@PAVAccount@@@std@@@std@@@0@AAV10@@Z 0042ee00 f   Source.obj
 0002:0001de30       __ehhandler$??$addressof@V?$basic_filebuf@DU?$char_traits@D@std@@@std@@@std@@YAPAV?$basic_filebuf@DU?$char_traits@D@std@@@0@AAV10@@Z 0042ee30 f   Source.obj
 0002:0001de60       __ehhandler$??$forward@AAPAU?$_Tree_node@U?$pair@$$CBV?$basic_string@DU?$char_traits@D@std@@V?$allocator@D@2@@std@@PAVAccount@@@std@@PAX@std@@@std@@YAAAPAU?$_Tree_node@U?$pair@$$CBV?$basic_string@DU?$char_traits@D@std@@V?$allocator@D@2@@std@@PAVAccount@@@std@@PAX@0@AAPAU10@@Z 0042ee60 f   Source.obj
 0002:0001de90       __ehhandler$??$forward@AAPAVAccount@@@std@@YAAAPAVAccount@@AAPAV1@@Z 0042ee90 f   Source.obj
 0002:0001dec0       __ehhandler$??$forward@AAPAV_Facet_base@std@@@std@@YAAAPAV_Facet_base@0@AAPAV10@@Z 0042eec0 f   Source.obj
 0002:0001def0       __ehhandler$??$forward@ABQAD@std@@YAABQADABQAD@Z 0042eef0 f   Source.obj
 0002:0001df20       __ehhandler$??$forward@ABQAU?$_Tree_node@U?$pair@$$CBV?$basic_string@DU?$char_traits@D@std@@V?$allocator@D@2@@std@@PAVAccount@@@std@@PAX@std@@@std@@YAABQAU?$_Tree_node@U?$pair@$$CBV?$basic_string@DU?$char_traits@D@std@@V?$allocator@D@2@@std@@PAVAccount@@@std@@PAX@0@ABQAU10@@Z 0042ef20 f   Source.obj
 0002:0001df50       __ehhandler$??$forward@ABU?$less@V?$basic_string@DU?$char_traits@D@std@@V?$allocator@D@2@@std@@@std@@@std@@YAABU?$less@V?$basic_string@DU?$char_traits@D@std@@V?$allocator@D@2@@std@@@0@ABU10@@Z 0042ef50 f   Source.obj
 0002:0001df80       __ehhandler$??$forward@ABUpiecewise_construct_t@std@@@std@@YAABUpiecewise_construct_t@0@ABU10@@Z 0042ef80 f   Source.obj
 0002:0001dfb0       __ehhandler$??$forward@ABV?$allocator@D@std@@@std@@YAABV?$allocator@D@0@ABV10@@Z 0042efb0 f   Source.obj
 0002:0001dfe0       __ehhandler$??$forward@AB_N@std@@YAAB_NAB_N@Z 0042efe0 f   Source.obj
 0002:0001e010       __ehhandler$??$forward@PAU?$_Tree_node@U?$pair@$$CBV?$basic_string@DU?$char_traits@D@std@@V?$allocator@D@2@@std@@PAVAccount@@@std@@PAX@std@@@std@@YA$$QAPAU?$_Tree_node@U?$pair@$$CBV?$basic_string@DU?$char_traits@D@std@@V?$allocator@D@2@@std@@PAVAccount@@@std@@PAX@0@AAPAU10@@Z 0042f010 f   Source.obj
 0002:0001e040       __ehhandler$??$forward@PAU_Container_base12@std@@@std@@YA$$QAPAU_Container_base12@0@AAPAU10@@Z 0042f040 f   Source.obj
 0002:0001e070       __ehhandler$??$forward@U?$pair@$$CBV?$basic_string@DU?$char_traits@D@std@@V?$allocator@D@2@@std@@PAVAccount@@@std@@@std@@YA$$QAU?$pair@$$CBV?$basic_string@DU?$char_traits@D@std@@V?$allocator@D@2@@std@@PAVAccount@@@0@AAU10@@Z 0042f070 f   Source.obj
 0002:0001e0a0       __ehhandler$??$forward@U_Zero_then_variadic_args_t@std@@@std@@YA$$QAU_Zero_then_variadic_args_t@0@AAU10@@Z 0042f0a0 f   Source.obj
 0002:0001e0d0       __ehhandler$??$forward@V?$_Tree_iterator@V?$_Tree_val@U?$_Tree_simple_types@U?$pair@$$CBV?$basic_string@DU?$char_traits@D@std@@V?$allocator@D@2@@std@@PAVAccount@@@std@@@std@@@std@@@std@@@std@@YA$$QAV?$_Tree_iterator@V?$_Tree_val@U?$_Tree_simple_types@U?$pair@$$CBV?$basic_string@DU?$char_traits@D@std@@V?$allocator@D@2@@std@@PAVAccount@@@std@@@std@@@std@@@0@AAV10@@Z 0042f0d0 f   Source.obj
 0002:0001e100       __ehhandler$??$forward@V?$allocator@D@std@@@std@@YA$$QAV?$allocator@D@0@AAV10@@Z 0042f100 f   Source.obj
 0002:0001e130       __ehhandler$??$forward@V?$basic_string@DU?$char_traits@D@std@@V?$allocator@D@2@@std@@@std@@YA$$QAV?$basic_string@DU?$char_traits@D@std@@V?$allocator@D@2@@0@AAV10@@Z 0042f130 f   Source.obj
 0002:0001e160       __ehhandler$??$forward@V?$tuple@$$QAV?$basic_string@DU?$char_traits@D@std@@V?$allocator@D@2@@std@@@std@@@std@@YA$$QAV?$tuple@$$QAV?$basic_string@DU?$char_traits@D@std@@V?$allocator@D@2@@std@@@0@AAV10@@Z 0042f160 f   Source.obj
 0002:0001e190       __ehhandler$??$forward@V?$tuple@$$V@std@@@std@@YA$$QAV?$tuple@$$V@0@AAV10@@Z 0042f190 f   Source.obj
 0002:0001e1c0       __ehhandler$??$forward@_N@std@@YA$$QA_NAA_N@Z 0042f1c0 f   Source.obj
 0002:0001e1f0       __ehhandler$??$forward_as_tuple@$$V@std@@YA?AV?$tuple@$$V@0@XZ 0042f1f0 f   Source.obj
 0002:0001e220       __ehhandler$??$forward_as_tuple@V?$basic_string@DU?$char_traits@D@std@@V?$allocator@D@2@@std@@@std@@YA?AV?$tuple@$$QAV?$basic_string@DU?$char_traits@D@std@@V?$allocator@D@2@@std@@@0@$$QAV?$basic_string@DU?$char_traits@D@std@@V?$allocator@D@2@@0@@Z 0042f220 f   Source.obj
 0002:0001e250       __ehhandler$??$get@$0A@$$QAV?$basic_string@DU?$char_traits@D@std@@V?$allocator@D@2@@std@@@std@@YA$$QAV?$basic_string@DU?$char_traits@D@std@@V?$allocator@D@2@@0@$$QAV?$tuple@$$QAV?$basic_string@DU?$char_traits@D@std@@V?$allocator@D@2@@std@@@0@@Z 0042f250 f   Source.obj
 0002:0001e280       __unwindfunclet$??$getline@DU?$char_traits@D@std@@V?$allocator@D@2@@std@@YAAAV?$basic_istream@DU?$char_traits@D@std@@@0@$$QAV10@AAV?$basic_string@DU?$char_traits@D@std@@V?$allocator@D@2@@0@D@Z$2 0042f280 f   Source.obj
 0002:0001e288       __ehhandler$??$getline@DU?$char_traits@D@std@@V?$allocator@D@2@@std@@YAAAV?$basic_istream@DU?$char_traits@D@std@@@0@$$QAV10@AAV?$basic_string@DU?$char_traits@D@std@@V?$allocator@D@2@@0@D@Z 0042f288 f   Source.obj
 0002:0001e2c0       __ehhandler$??$move@AAU?$pair@$$CBV?$basic_string@DU?$char_traits@D@std@@V?$allocator@D@2@@std@@PAVAccount@@@std@@@std@@YA$$QAU?$pair@$$CBV?$basic_string@DU?$char_traits@D@std@@V?$allocator@D@2@@std@@PAVAccount@@@0@AAU10@@Z 0042f2c0 f   Source.obj
 0002:0001e2f0       __ehhandler$??$move@AAV?$allocator@D@std@@@std@@YA$$QAV?$allocator@D@0@AAV10@@Z 0042f2f0 f   Source.obj
 0002:0001e320       __ehhandler$??$move@AAV?$basic_istream@DU?$char_traits@D@std@@@std@@@std@@YA$$QAV?$basic_istream@DU?$char_traits@D@std@@@0@AAV10@@Z 0042f320 f   Source.obj
 0002:0001e350       __ehhandler$??$move@AAV?$basic_string@DU?$char_traits@D@std@@V?$allocator@D@2@@std@@@std@@YA$$QAV?$basic_string@DU?$char_traits@D@std@@V?$allocator@D@2@@0@AAV10@@Z 0042f350 f   Source.obj
 0002:0001e380       __ehhandler$??$move@AAV?$tuple@$$QAV?$basic_string@DU?$char_traits@D@std@@V?$allocator@D@2@@std@@@std@@@std@@YA$$QAV?$tuple@$$QAV?$basic_string@DU?$char_traits@D@std@@V?$allocator@D@2@@std@@@0@AAV10@@Z 0042f380 f   Source.obj
 0002:0001e3b0       __unwindfunclet$??$use_facet@V?$codecvt@DDU_Mbstatet@@@std@@@std@@YAABV?$codecvt@DDU_Mbstatet@@@0@ABVlocale@0@@Z$0 0042f3b0 f   Source.obj
 0002:0001e3c2       __unwindfunclet$??$use_facet@V?$codecvt@DDU_Mbstatet@@@std@@@std@@YAABV?$codecvt@DDU_Mbstatet@@@0@ABVlocale@0@@Z$1 0042f3c2 f   Source.obj
 0002:0001e3ca       __ehhandler$??$use_facet@V?$codecvt@DDU_Mbstatet@@@std@@@std@@YAABV?$codecvt@DDU_Mbstatet@@@0@ABVlocale@0@@Z 0042f3ca f   Source.obj
 0002:0001e410       __unwindfunclet$??0?$_Tree_temp_node_alloc@V?$allocator@U?$_Tree_node@U?$pair@$$CBV?$basic_string@DU?$char_traits@D@std@@V?$allocator@D@2@@std@@PAVAccount@@@std@@PAX@std@@@std@@@std@@QAE@AAV?$allocator@U?$_Tree_node@U?$pair@$$CBV?$basic_string@DU?$char_traits@D@std@@V?$allocator@D@2@@std@@PAVAccount@@@std@@PAX@std@@@1@@Z$0 0042f410 f   Source.obj
 0002:0001e418       __ehhandler$??0?$_Tree_temp_node_alloc@V?$allocator@U?$_Tree_node@U?$pair@$$CBV?$basic_string@DU?$char_traits@D@std@@V?$allocator@D@2@@std@@PAVAccount@@@std@@PAX@std@@@std@@@std@@QAE@AAV?$allocator@U?$_Tree_node@U?$pair@$$CBV?$basic_string@DU?$char_traits@D@std@@V?$allocator@D@2@@std@@PAVAccount@@@std@@PAX@std@@@1@@Z 0042f418 f   Source.obj
 0002:0001e440       __ehhandler$??0?$allocator@D@std@@QAE@XZ 0042f440 f   Source.obj
 0002:0001e470       __ehhandler$??0?$allocator@U?$_Tree_node@U?$pair@$$CBV?$basic_string@DU?$char_traits@D@std@@V?$allocator@D@2@@std@@PAVAccount@@@std@@PAX@std@@@std@@QAE@XZ 0042f470 f   Source.obj
 0002:0001e4a0       __unwindfunclet$??0?$basic_filebuf@DU?$char_traits@D@std@@@std@@QAE@PAU_iobuf@@@Z$0 0042f4a0 f   Source.obj
 0002:0001e4b2       __ehhandler$??0?$basic_filebuf@DU?$char_traits@D@std@@@std@@QAE@PAU_iobuf@@@Z 0042f4b2 f   Source.obj
 0002:0001e4e0       __unwindfunclet$??0?$basic_ifstream@DU?$char_traits@D@std@@@std@@QAE@PBDHH@Z$0 0042f4e0 f   Source.obj
 0002:0001e50c       __unwindfunclet$??0?$basic_ifstream@DU?$char_traits@D@std@@@std@@QAE@PBDHH@Z$1 0042f50c f   Source.obj
 0002:0001e521       __unwindfunclet$??0?$basic_ifstream@DU?$char_traits@D@std@@@std@@QAE@PBDHH@Z$2 0042f521 f   Source.obj
 0002:0001e52c       __ehhandler$??0?$basic_ifstream@DU?$char_traits@D@std@@@std@@QAE@PBDHH@Z 0042f52c f   Source.obj
 0002:0001e570       __unwindfunclet$??0?$basic_ofstream@DU?$char_traits@D@std@@@std@@QAE@PBDHH@Z$0 0042f570 f   Source.obj
 0002:0001e59c       __unwindfunclet$??0?$basic_ofstream@DU?$char_traits@D@std@@@std@@QAE@PBDHH@Z$1 0042f59c f   Source.obj
 0002:0001e5b1       __unwindfunclet$??0?$basic_ofstream@DU?$char_traits@D@std@@@std@@QAE@PBDHH@Z$2 0042f5b1 f   Source.obj
 0002:0001e5bc       __ehhandler$??0?$basic_ofstream@DU?$char_traits@D@std@@@std@@QAE@PBDHH@Z 0042f5bc f   Source.obj
 0002:0001e600       __ehhandler$??0?$basic_string@DU?$char_traits@D@std@@V?$allocator@D@2@@std@@QAE@$$QAV01@@Z 0042f600 f   Source.obj
 0002:0001e630       __unwindfunclet$??0?$basic_string@DU?$char_traits@D@std@@V?$allocator@D@2@@std@@QAE@ABV01@@Z$0 0042f630 f   Source.obj
 0002:0001e638       __unwindfunclet$??0?$basic_string@DU?$char_traits@D@std@@V?$allocator@D@2@@std@@QAE@ABV01@@Z$1 0042f638 f   Source.obj
 0002:0001e640       __ehhandler$??0?$basic_string@DU?$char_traits@D@std@@V?$allocator@D@2@@std@@QAE@ABV01@@Z 0042f640 f   Source.obj
 0002:0001e680       __unwindfunclet$??0?$basic_string@DU?$char_traits@D@std@@V?$allocator@D@2@@std@@QAE@ABV01@IIABV?$allocator@D@1@@Z$0 0042f680 f   Source.obj
 0002:0001e688       __unwindfunclet$??0?$basic_string@DU?$char_traits@D@std@@V?$allocator@D@2@@std@@QAE@ABV01@IIABV?$allocator@D@1@@Z$1 0042f688 f   Source.obj
 0002:0001e690       __ehhandler$??0?$basic_string@DU?$char_traits@D@std@@V?$allocator@D@2@@std@@QAE@ABV01@IIABV?$allocator@D@1@@Z 0042f690 f   Source.obj
 0002:0001e6d0       __ehhandler$??0?$basic_string@DU?$char_traits@D@std@@V?$allocator@D@2@@std@@QAE@XZ 0042f6d0 f   Source.obj
 0002:0001e700       __ehhandler$??0?$tuple@$$QAV?$basic_string@DU?$char_traits@D@std@@V?$allocator@D@2@@std@@@std@@QAE@$$QAV01@@Z 0042f700 f   Source.obj
 0002:0001e730       __ehhandler$??0?$tuple@$$V@std@@QAE@ABV01@@Z 0042f730 f   Source.obj
 0002:0001e760       __ehhandler$??0?$tuple@$$V@std@@QAE@XZ 0042f760 f   Source.obj
 0002:0001e790       __ehhandler$??0Account@@QAE@XZ 0042f790 f   Source.obj
 0002:0001e7c0       __ehhandler$??0BalancedAcc@@QAE@XZ 0042f7c0 f   Source.obj
 0002:0001e7f0       __ehhandler$??0BonusAcc@@QAE@XZ 0042f7f0 f   Source.obj
 0002:0001e820       __unwindfunclet$??0Manager@@QAE@XZ$0 0042f820 f   Source.obj
 0002:0001e82b       __unwindfunclet$??0Manager@@QAE@XZ$1 0042f82b f   Source.obj
 0002:0001e836       __unwindfunclet$??0Manager@@QAE@XZ$2 0042f836 f   Source.obj
 0002:0001e841       __unwindfunclet$??0Manager@@QAE@XZ$3 0042f841 f   Source.obj
 0002:0001e84f       __unwindfunclet$??0Manager@@QAE@XZ$4 0042f84f f   Source.obj
 0002:0001e85d       __unwindfunclet$??0Manager@@QAE@XZ$5 0042f85d f   Source.obj
 0002:0001e86b       __ehhandler$??0Manager@@QAE@XZ 0042f86b f   Source.obj
 0002:0001e8b0       __ehhandler$??0ServiceAcc@@QAE@XZ 0042f8b0 f   Source.obj
 0002:0001e8e0       __ehhandler$??0SimpleAcc@@QAE@XZ 0042f8e0 f   Source.obj
 0002:0001e910       __ehhandler$??0_Container_proxy@std@@QAE@PAU_Container_base12@1@@Z 0042f910 f   Source.obj
 0002:0001e940       __ehhandler$??0_Iterator_base12@std@@QAE@ABU01@@Z 0042f940 f   Source.obj
 0002:0001e970       __ehhandler$??0_Iterator_base12@std@@QAE@XZ 0042f970 f   Source.obj
 0002:0001e9a0       __ehhandler$??0bad_alloc@std@@AAE@QBD@Z 0042f9a0 f   Source.obj
 0002:0001e9d0       __ehhandler$??0bad_array_new_length@std@@QAE@XZ 0042f9d0 f   Source.obj
 0002:0001ea00       __ehhandler$??0bad_cast@std@@QAE@XZ 0042fa00 f   Source.obj
 0002:0001ea30       __ehhandler$??0exception@std@@QAE@ABV01@@Z 0042fa30 f   Source.obj
 0002:0001ea60       __ehhandler$??0exception@std@@QAE@QBD@Z 0042fa60 f   Source.obj
 0002:0001eaa0       __ehhandler$??0exception@std@@QAE@QBDH@Z 0042faa0 f   Source.obj
 0002:0001ead0       __unwindfunclet$??0sentry@?$basic_istream@DU?$char_traits@D@std@@@std@@QAE@AAV12@_N@Z$0 0042fad0 f   Source.obj
 0002:0001ead8       __ehhandler$??0sentry@?$basic_istream@DU?$char_traits@D@std@@@std@@QAE@AAV12@_N@Z 0042fad8 f   Source.obj
 0002:0001eb00       __unwindfunclet$??0sentry@?$basic_ostream@DU?$char_traits@D@std@@@std@@QAE@AAV12@@Z$0 0042fb00 f   Source.obj
 0002:0001eb08       __ehhandler$??0sentry@?$basic_ostream@DU?$char_traits@D@std@@@std@@QAE@AAV12@@Z 0042fb08 f   Source.obj
 0002:0001eb30       __ehhandler$??1?$_Alloc_construct_ptr@V?$allocator@U?$_Tree_node@U?$pair@$$CBV?$basic_string@DU?$char_traits@D@std@@V?$allocator@D@2@@std@@PAVAccount@@@std@@PAX@std@@@std@@@std@@QAE@XZ 0042fb30 f   Source.obj
 0002:0001eb60       __ehhandler$??1?$_Container_proxy_ptr12@V?$allocator@U_Container_proxy@std@@@std@@@std@@QAE@XZ 0042fb60 f   Source.obj
 0002:0001eb90       __ehhandler$??1?$_Tree@V?$_Tmap_traits@V?$basic_string@DU?$char_traits@D@std@@V?$allocator@D@2@@std@@PAVAccount@@U?$less@V?$basic_string@DU?$char_traits@D@std@@V?$allocator@D@2@@std@@@2@V?$allocator@U?$pair@$$CBV?$basic_string@DU?$char_traits@D@std@@V?$allocator@D@2@@std@@PAVAccount@@@std@@@2@$0A@@std@@@std@@QAE@XZ 0042fb90 f   Source.obj
 0002:0001ebd0       __ehhandler$??1?$_Tree_temp_node@V?$allocator@U?$_Tree_node@U?$pair@$$CBV?$basic_string@DU?$char_traits@D@std@@V?$allocator@D@2@@std@@PAVAccount@@@std@@PAX@std@@@std@@@std@@QAE@XZ 0042fbd0 f   Source.obj
 0002:0001ec00       __ehhandler$??1?$basic_filebuf@DU?$char_traits@D@std@@@std@@UAE@XZ 0042fc00 f   Source.obj
 0002:0001ec30       __ehhandler$??1?$basic_ifstream@DU?$char_traits@D@std@@@std@@UAE@XZ 0042fc30 f   Source.obj
 0002:0001ec60       __ehhandler$??1?$basic_ofstream@DU?$char_traits@D@std@@@std@@UAE@XZ 0042fc60 f   Source.obj
 0002:0001ec90       __ehhandler$??1?$basic_string@DU?$char_traits@D@std@@V?$allocator@D@2@@std@@QAE@XZ 0042fc90 f   Source.obj
 0002:0001ecd0       __ehhandler$??1?$unique_ptr@V_Facet_base@std@@U?$default_delete@V_Facet_base@std@@@2@@std@@QAE@XZ 0042fcd0 f   Source.obj
 0002:0001ed00       __ehhandler$??1_Bxty@?$_String_val@U?$_Simple_types@D@std@@@std@@QAE@XZ 0042fd00 f   Source.obj
 0002:0001ed30       __ehhandler$??1_Iterator_base12@std@@QAE@XZ 0042fd30 f   Source.obj
 0002:0001ed70       __ehhandler$??1_Sentry_base@?$basic_istream@DU?$char_traits@D@std@@@std@@QAE@XZ 0042fd70 f   Source.obj
 0002:0001eda0       __ehhandler$??1_Sentry_base@?$basic_ostream@DU?$char_traits@D@std@@@std@@QAE@XZ 0042fda0 f   Source.obj
 0002:0001edd0       __ehhandler$??1exception@std@@UAE@XZ 0042fdd0 f   Source.obj
 0002:0001ee00       __ehhandler$??1locale@std@@QAE@XZ 0042fe00 f   Source.obj
 0002:0001ee30       __ehhandler$??1sentry@?$basic_ostream@DU?$char_traits@D@std@@@std@@QAE@XZ 0042fe30 f   Source.obj
 0002:0001ee60       __ehhandler$??2@YAPAXIPAX@Z 0042fe60 f   Source.obj
 0002:0001ee90       __ehhandler$??4_Iterator_base12@std@@QAEAAU01@ABU01@@Z 0042fe90 f   Source.obj
 0002:0001eed0       __unwindfunclet$??E?$_Tree_iterator@V?$_Tree_val@U?$_Tree_simple_types@U?$pair@$$CBV?$basic_string@DU?$char_traits@D@std@@V?$allocator@D@2@@std@@PAVAccount@@@std@@@std@@@std@@@std@@QAE?AV01@H@Z$0 0042fed0 f   Source.obj
 0002:0001eed8       __ehhandler$??E?$_Tree_iterator@V?$_Tree_val@U?$_Tree_simple_types@U?$pair@$$CBV?$basic_string@DU?$char_traits@D@std@@V?$allocator@D@2@@std@@PAVAccount@@@std@@@std@@@std@@@std@@QAE?AV01@H@Z 0042fed8 f   Source.obj
 0002:0001ef10       __ehhandler$??R?$default_delete@V_Facet_base@std@@@std@@QBEXPAV_Facet_base@1@@Z 0042ff10 f   Source.obj
 0002:0001ef40       __ehhandler$?_Adopt@_Iterator_base12@std@@QAEXPBU_Container_base12@2@@Z 0042ff40 f   Source.obj
 0002:0001ef80       __unwindfunclet$?_Alloc_sentinel_and_proxy@?$_Tree@V?$_Tmap_traits@V?$basic_string@DU?$char_traits@D@std@@V?$allocator@D@2@@std@@PAVAccount@@U?$less@V?$basic_string@DU?$char_traits@D@std@@V?$allocator@D@2@@std@@@2@V?$allocator@U?$pair@$$CBV?$basic_string@DU?$char_traits@D@std@@V?$allocator@D@2@@std@@PAVAccount@@@std@@@2@$0A@@std@@@std@@IAEXXZ$0 0042ff80 f   Source.obj
 0002:0001ef88       __ehhandler$?_Alloc_sentinel_and_proxy@?$_Tree@V?$_Tmap_traits@V?$basic_string@DU?$char_traits@D@std@@V?$allocator@D@2@@std@@PAVAccount@@U?$less@V?$basic_string@DU?$char_traits@D@std@@V?$allocator@D@2@@std@@@2@V?$allocator@U?$pair@$$CBV?$basic_string@DU?$char_traits@D@std@@V?$allocator@D@2@@std@@PAVAccount@@@std@@@2@$0A@@std@@@std@@IAEXXZ 0042ff88 f   Source.obj
 0002:0001efc0       __ehhandler$?_Calculate_growth@?$basic_string@DU?$char_traits@D@std@@V?$allocator@D@2@@std@@ABEII@Z 0042ffc0 f   Source.obj
 0002:0001eff0       __ehhandler$?_Calculate_growth@?$basic_string@DU?$char_traits@D@std@@V?$allocator@D@2@@std@@CAIIII@Z 0042fff0 f   Source.obj
 0002:0001f030       __ehhandler$?_Clamp_suffix_size@?$_String_val@U?$_Simple_types@D@std@@@std@@QBEIII@Z 00430030 f   Source.obj
 0002:0001f060       __ehhandler$?_Equal@?$basic_string@DU?$char_traits@D@std@@V?$allocator@D@2@@std@@QBE_NQBD@Z 00430060 f   Source.obj
 0002:0001f090       __ehhandler$?_Get_first@?$_Compressed_pair@U?$default_delete@V_Facet_base@std@@@std@@PAV_Facet_base@2@$00@std@@QAEAAU?$default_delete@V_Facet_base@std@@@2@XZ 00430090 f   Source.obj
 0002:0001f0c0       __ehhandler$?_Get_first@?$_Compressed_pair@U?$less@V?$basic_string@DU?$char_traits@D@std@@V?$allocator@D@2@@std@@@std@@V?$_Compressed_pair@V?$allocator@U?$_Tree_node@U?$pair@$$CBV?$basic_string@DU?$char_traits@D@std@@V?$allocator@D@2@@std@@PAVAccount@@@std@@PAX@std@@@std@@V?$_Tree_val@U?$_Tree_simple_types@U?$pair@$$CBV?$basic_string@DU?$char_traits@D@std@@V?$allocator@D@2@@std@@PAVAccount@@@std@@@std@@@2@$00@2@$00@std@@QBEABU?$less@V?$basic_string@DU?$char_traits@D@std@@V?$allocator@D@2@@std@@@2@XZ 004300c0 f   Source.obj
 0002:0001f0f0       __ehhandler$?_Get_first@?$_Compressed_pair@V?$allocator@D@std@@V?$_String_val@U?$_Simple_types@D@std@@@2@$00@std@@QAEAAV?$allocator@D@2@XZ 004300f0 f   Source.obj
 0002:0001f120       __ehhandler$?_Get_first@?$_Compressed_pair@V?$allocator@D@std@@V?$_String_val@U?$_Simple_types@D@std@@@2@$00@std@@QBEABV?$allocator@D@2@XZ 00430120 f   Source.obj
 0002:0001f150       __ehhandler$?_Get_first@?$_Compressed_pair@V?$allocator@U?$_Tree_node@U?$pair@$$CBV?$basic_string@DU?$char_traits@D@std@@V?$allocator@D@2@@std@@PAVAccount@@@std@@PAX@std@@@std@@V?$_Tree_val@U?$_Tree_simple_types@U?$pair@$$CBV?$basic_string@DU?$char_traits@D@std@@V?$allocator@D@2@@std@@PAVAccount@@@std@@@std@@@2@$00@std@@QAEAAV?$allocator@U?$_Tree_node@U?$pair@$$CBV?$basic_string@DU?$char_traits@D@std@@V?$allocator@D@2@@std@@PAVAccount@@@std@@PAX@std@@@2@XZ 00430150 f   Source.obj
 0002:0001f180       __ehhandler$?_Get_first@?$_Compressed_pair@V?$allocator@U?$_Tree_node@U?$pair@$$CBV?$basic_string@DU?$char_traits@D@std@@V?$allocator@D@2@@std@@PAVAccount@@@std@@PAX@std@@@std@@V?$_Tree_val@U?$_Tree_simple_types@U?$pair@$$CBV?$basic_string@DU?$char_traits@D@std@@V?$allocator@D@2@@std@@PAVAccount@@@std@@@std@@@2@$00@std@@QBEABV?$allocator@U?$_Tree_node@U?$pair@$$CBV?$basic_string@DU?$char_traits@D@std@@V?$allocator@D@2@@std@@PAVAccount@@@std@@PAX@std@@@2@XZ 00430180 f   Source.obj
 0002:0001f1b0       __ehhandler$?_Get_scary@?$_Tree@V?$_Tmap_traits@V?$basic_string@DU?$char_traits@D@std@@V?$allocator@D@2@@std@@PAVAccount@@U?$less@V?$basic_string@DU?$char_traits@D@std@@V?$allocator@D@2@@std@@@2@V?$allocator@U?$pair@$$CBV?$basic_string@DU?$char_traits@D@std@@V?$allocator@D@2@@std@@PAVAccount@@@std@@@2@$0A@@std@@@std@@IAEPAV?$_Tree_val@U?$_Tree_simple_types@U?$pair@$$CBV?$basic_string@DU?$char_traits@D@std@@V?$allocator@D@2@@std@@PAVAccount@@@std@@@std@@@2@XZ 004301b0 f   Source.obj
 0002:0001f1e0       __ehhandler$?_Get_scary@?$_Tree@V?$_Tmap_traits@V?$basic_string@DU?$char_traits@D@std@@V?$allocator@D@2@@std@@PAVAccount@@U?$less@V?$basic_string@DU?$char_traits@D@std@@V?$allocator@D@2@@std@@@2@V?$allocator@U?$pair@$$CBV?$basic_string@DU?$char_traits@D@std@@V?$allocator@D@2@@std@@PAVAccount@@@std@@@2@$0A@@std@@@std@@IBEPBV?$_Tree_val@U?$_Tree_simple_types@U?$pair@$$CBV?$basic_string@DU?$char_traits@D@std@@V?$allocator@D@2@@std@@PAVAccount@@@std@@@std@@@2@XZ 004301e0 f   Source.obj
 0002:0001f210       __ehhandler$?_Getal@?$_Tree@V?$_Tmap_traits@V?$basic_string@DU?$char_traits@D@std@@V?$allocator@D@2@@std@@PAVAccount@@U?$less@V?$basic_string@DU?$char_traits@D@std@@V?$allocator@D@2@@std@@@2@V?$allocator@U?$pair@$$CBV?$basic_string@DU?$char_traits@D@std@@V?$allocator@D@2@@std@@PAVAccount@@@std@@@2@$0A@@std@@@std@@IAEAAV?$allocator@U?$_Tree_node@U?$pair@$$CBV?$basic_string@DU?$char_traits@D@std@@V?$allocator@D@2@@std@@PAVAccount@@@std@@PAX@std@@@2@XZ 00430210 f   Source.obj
 0002:0001f240       __ehhandler$?_Getal@?$_Tree@V?$_Tmap_traits@V?$basic_string@DU?$char_traits@D@std@@V?$allocator@D@2@@std@@PAVAccount@@U?$less@V?$basic_string@DU?$char_traits@D@std@@V?$allocator@D@2@@std@@@2@V?$allocator@U?$pair@$$CBV?$basic_string@DU?$char_traits@D@std@@V?$allocator@D@2@@std@@PAVAccount@@@std@@@2@$0A@@std@@@std@@IBEABV?$allocator@U?$_Tree_node@U?$pair@$$CBV?$basic_string@DU?$char_traits@D@std@@V?$allocator@D@2@@std@@PAVAccount@@@std@@PAX@std@@@2@XZ 00430240 f   Source.obj
 0002:0001f270       __ehhandler$?_Getal@?$basic_string@DU?$char_traits@D@std@@V?$allocator@D@2@@std@@AAEAAV?$allocator@D@2@XZ 00430270 f   Source.obj
 0002:0001f2a0       __ehhandler$?_Getal@?$basic_string@DU?$char_traits@D@std@@V?$allocator@D@2@@std@@ABEABV?$allocator@D@2@XZ 004302a0 f   Source.obj
 0002:0001f2d0       __ehhandler$?_Getcomp@?$_Tree@V?$_Tmap_traits@V?$basic_string@DU?$char_traits@D@std@@V?$allocator@D@2@@std@@PAVAccount@@U?$less@V?$basic_string@DU?$char_traits@D@std@@V?$allocator@D@2@@std@@@2@V?$allocator@U?$pair@$$CBV?$basic_string@DU?$char_traits@D@std@@V?$allocator@D@2@@std@@PAVAccount@@@std@@@2@$0A@@std@@@std@@IBEABU?$less@V?$basic_string@DU?$char_traits@D@std@@V?$allocator@D@2@@std@@@2@XZ 004302d0 f   Source.obj
 0002:0001f300       __ehhandler$?_Getcont@_Iterator_base12@std@@QBEPBU_Container_base12@2@XZ 00430300 f   Source.obj
 0002:0001f330       __ehhandler$?_Insert_node@?$_Tree_val@U?$_Tree_simple_types@U?$pair@$$CBV?$basic_string@DU?$char_traits@D@std@@V?$allocator@D@2@@std@@PAVAccount@@@std@@@std@@@std@@QAEPAU?$_Tree_node@U?$pair@$$CBV?$basic_string@DU?$char_traits@D@std@@V?$allocator@D@2@@std@@PAVAccount@@@std@@PAX@2@U?$_Tree_id@PAU?$_Tree_node@U?$pair@$$CBV?$basic_string@DU?$char_traits@D@std@@V?$allocator@D@2@@std@@PAVAccount@@@std@@PAX@std@@@2@QAU32@@Z 00430330 f   Source.obj
 0002:0001f360       __ehhandler$?_Memcpy_val_from@?$basic_string@DU?$char_traits@D@std@@V?$allocator@D@2@@std@@AAEXABV12@@Z 00430360 f   Source.obj
 0002:0001f390       __ehhandler$?_Orphan_all@_Container_base12@std@@QAEXXZ 00430390 f   Source.obj
 0002:0001f3d0       __ehhandler$?_Orphan_me@_Iterator_base12@std@@QAEXXZ 004303d0 f   Source.obj
 0002:0001f400       __ehhandler$?_Release@?$_Alloc_construct_ptr@V?$allocator@U?$_Tree_node@U?$pair@$$CBV?$basic_string@DU?$char_traits@D@std@@V?$allocator@D@2@@std@@PAVAccount@@@std@@PAX@std@@@std@@@std@@QAEPAU?$_Tree_node@U?$pair@$$CBV?$basic_string@DU?$char_traits@D@std@@V?$allocator@D@2@@std@@PAVAccount@@@std@@PAX@2@XZ 00430400 f   Source.obj
 0002:0001f430       __ehhandler$?_Release@_Basic_container_proxy_ptr12@std@@QAEXXZ 00430430 f   Source.obj
 0002:0001f460       __ehhandler$?_Swap_proxy_and_iterators@_Container_base12@std@@QAEXAAU12@@Z 00430460 f   Source.obj
 0002:0001f4a0       __ehhandler$?_Take_contents@?$basic_string@DU?$char_traits@D@std@@V?$allocator@D@2@@std@@AAEXAAV12@U?$integral_constant@_N$00@2@@Z 004304a0 f   Source.obj
 0002:0001f4d0       __ehhandler$?_Tidy_deallocate@?$basic_string@DU?$char_traits@D@std@@V?$allocator@D@2@@std@@AAEXXZ 004304d0 f   Source.obj
 0002:0001f500       __ehhandler$?_Tidy_init@?$basic_string@DU?$char_traits@D@std@@V?$allocator@D@2@@std@@AAEXXZ 00430500 f   Source.obj
 0002:0001f530       __ehhandler$?assign@?$_Narrow_char_traits@DH@std@@SAXAADABD@Z 00430530 f   Source.obj
 0002:0001f560       __ehhandler$?begin@?$_Tree@V?$_Tmap_traits@V?$basic_string@DU?$char_traits@D@std@@V?$allocator@D@2@@std@@PAVAccount@@U?$less@V?$basic_string@DU?$char_traits@D@std@@V?$allocator@D@2@@std@@@2@V?$allocator@U?$pair@$$CBV?$basic_string@DU?$char_traits@D@std@@V?$allocator@D@2@@std@@PAVAccount@@@std@@@2@$0A@@std@@@std@@QAE?AV?$_Tree_iterator@V?$_Tree_val@U?$_Tree_simple_types@U?$pair@$$CBV?$basic_string@DU?$char_traits@D@std@@V?$allocator@D@2@@std@@PAVAccount@@@std@@@std@@@std@@@2@XZ 00430560 f   Source.obj
 0002:0001f590       __ehhandler$?c_str@?$basic_string@DU?$char_traits@D@std@@V?$allocator@D@2@@std@@QBEPBDXZ 00430590 f   Source.obj
 0002:0001f5c0       __ehhandler$?compare@?$_Narrow_char_traits@DH@std@@SAHQBD0I@Z 004305c0 f   Source.obj
 0002:0001f5f0       __ehhandler$?compare@?$basic_string@DU?$char_traits@D@std@@V?$allocator@D@2@@std@@QBEHABV12@@Z 004305f0 f   Source.obj
 0002:0001f620       __unwindfunclet$?convert@Manager@@QAE?AW4accounttype@@AAV?$basic_string@DU?$char_traits@D@std@@V?$allocator@D@2@@std@@@Z$0 00430620 f   Source.obj
 0002:0001f62b       __unwindfunclet$?convert@Manager@@QAE?AW4accounttype@@AAV?$basic_string@DU?$char_traits@D@std@@V?$allocator@D@2@@std@@@Z$1 0043062b f   Source.obj
 0002:0001f636       __unwindfunclet$?convert@Manager@@QAE?AW4accounttype@@AAV?$basic_string@DU?$char_traits@D@std@@V?$allocator@D@2@@std@@@Z$2 00430636 f   Source.obj
 0002:0001f641       __unwindfunclet$?convert@Manager@@QAE?AW4accounttype@@AAV?$basic_string@DU?$char_traits@D@std@@V?$allocator@D@2@@std@@@Z$3 00430641 f   Source.obj
 0002:0001f64c       __unwindfunclet$?convert@Manager@@QAE?AW4accounttype@@AAV?$basic_string@DU?$char_traits@D@std@@V?$allocator@D@2@@std@@@Z$4 0043064c f   Source.obj
 0002:0001f657       __ehhandler$?convert@Manager@@QAE?AW4accounttype@@AAV?$basic_string@DU?$char_traits@D@std@@V?$allocator@D@2@@std@@@Z 00430657 f   Source.obj
 0002:0001f690       __ehhandler$?copy@?$_Narrow_char_traits@DH@std@@SAPADQADQBDI@Z 00430690 f   Source.obj
 0002:0001f6c0       __unwindfunclet$?create@Manager@@QAEPAVAccount@@XZ$0 004306c0 f   Source.obj
 0002:0001f6cb       __unwindfunclet$?create@Manager@@QAEPAVAccount@@XZ$1 004306cb f   Source.obj
 0002:0001f6d6       __unwindfunclet$?create@Manager@@QAEPAVAccount@@XZ$2 004306d6 f   Source.obj
 0002:0001f6e1       __unwindfunclet$?create@Manager@@QAEPAVAccount@@XZ$3 004306e1 f   Source.obj
 0002:0001f6ec       __unwindfunclet$?create@Manager@@QAEPAVAccount@@XZ$4 004306ec f   Source.obj
 0002:0001f6f7       __unwindfunclet$?create@Manager@@QAEPAVAccount@@XZ$5 004306f7 f   Source.obj
 0002:0001f702       __unwindfunclet$?create@Manager@@QAEPAVAccount@@XZ$6 00430702 f   Source.obj
 0002:0001f70d       __unwindfunclet$?create@Manager@@QAEPAVAccount@@XZ$7 0043070d f   Source.obj
 0002:0001f718       __unwindfunclet$?create@Manager@@QAEPAVAccount@@XZ$8 00430718 f   Source.obj
 0002:0001f723       __unwindfunclet$?create@Manager@@QAEPAVAccount@@XZ$9 00430723 f   Source.obj
 0002:0001f72e       __unwindfunclet$?create@Manager@@QAEPAVAccount@@XZ$10 0043072e f   Source.obj
 0002:0001f739       __unwindfunclet$?create@Manager@@QAEPAVAccount@@XZ$11 00430739 f   Source.obj
 0002:0001f744       __unwindfunclet$?create@Manager@@QAEPAVAccount@@XZ$12 00430744 f   Source.obj
 0002:0001f74f       __unwindfunclet$?create@Manager@@QAEPAVAccount@@XZ$13 0043074f f   Source.obj
 0002:0001f75a       __unwindfunclet$?create@Manager@@QAEPAVAccount@@XZ$14 0043075a f   Source.obj
 0002:0001f765       __unwindfunclet$?create@Manager@@QAEPAVAccount@@XZ$15 00430765 f   Source.obj
 0002:0001f770       __ehhandler$?create@Manager@@QAEPAVAccount@@XZ 00430770 f   Source.obj
 0002:0001f800       __ehhandler$?data@?$basic_string@DU?$char_traits@D@std@@V?$allocator@D@2@@std@@QBEPBDXZ 00430800 f   Source.obj
 0002:0001f830       __ehhandler$?end@?$_Tree@V?$_Tmap_traits@V?$basic_string@DU?$char_traits@D@std@@V?$allocator@D@2@@std@@PAVAccount@@U?$less@V?$basic_string@DU?$char_traits@D@std@@V?$allocator@D@2@@std@@@2@V?$allocator@U?$pair@$$CBV?$basic_string@DU?$char_traits@D@std@@V?$allocator@D@2@@std@@PAVAccount@@@std@@@2@$0A@@std@@@std@@QAE?AV?$_Tree_iterator@V?$_Tree_val@U?$_Tree_simple_types@U?$pair@$$CBV?$basic_string@DU?$char_traits@D@std@@V?$allocator@D@2@@std@@PAVAccount@@@std@@@std@@@std@@@2@XZ 00430830 f   Source.obj
 0002:0001f860       __ehhandler$?eof@?$_Narrow_char_traits@DH@std@@SAHXZ 00430860 f   Source.obj
 0002:0001f890       __ehhandler$?eq_int_type@?$_Narrow_char_traits@DH@std@@SA_NABH0@Z 00430890 f   Source.obj
 0002:0001f8c0       __ehhandler$?get_allocator@?$basic_string@DU?$char_traits@D@std@@V?$allocator@D@2@@std@@QBE?AV?$allocator@D@2@XZ 004308c0 f   Source.obj
 0002:0001f8f0       __ehhandler$?length@?$_Narrow_char_traits@DH@std@@SAIQBD@Z 004308f0 f   Source.obj
 0002:0001f920       __ehhandler$?length@?$basic_string@DU?$char_traits@D@std@@V?$allocator@D@2@@std@@QBEIXZ 00430920 f   Source.obj
 0002:0001f950       __ehhandler$?max@?$numeric_limits@H@std@@SAHXZ 00430950 f   Source.obj
 0002:0001f980       __ehhandler$?max_size@?$_Default_allocator_traits@V?$allocator@D@std@@@std@@SAIABV?$allocator@D@2@@Z 00430980 f   Source.obj
 0002:0001f9b0       __ehhandler$?max_size@?$_Default_allocator_traits@V?$allocator@U?$_Tree_node@U?$pair@$$CBV?$basic_string@DU?$char_traits@D@std@@V?$allocator@D@2@@std@@PAVAccount@@@std@@PAX@std@@@std@@@std@@SAIABV?$allocator@U?$_Tree_node@U?$pair@$$CBV?$basic_string@DU?$char_traits@D@std@@V?$allocator@D@2@@std@@PAVAccount@@@std@@PAX@std@@@2@@Z 004309b0 f   Source.obj
 0002:0001f9e0       __ehhandler$?max_size@?$_Tree@V?$_Tmap_traits@V?$basic_string@DU?$char_traits@D@std@@V?$allocator@D@2@@std@@PAVAccount@@U?$less@V?$basic_string@DU?$char_traits@D@std@@V?$allocator@D@2@@std@@@2@V?$allocator@U?$pair@$$CBV?$basic_string@DU?$char_traits@D@std@@V?$allocator@D@2@@std@@PAVAccount@@@std@@@2@$0A@@std@@@std@@QBEIXZ 004309e0 f   Source.obj
 0002:0001fa10       __ehhandler$?max_size@?$basic_string@DU?$char_traits@D@std@@V?$allocator@D@2@@std@@QBEIXZ 00430a10 f   Source.obj
 0002:0001fa50       __ehhandler$?move@?$_Narrow_char_traits@DH@std@@SAPADQADQBDI@Z 00430a50 f   Source.obj
 0002:0001fa80       __ehhandler$?not_eof@?$_Narrow_char_traits@DH@std@@SAHABH@Z 00430a80 f   Source.obj
 0002:0001fab0       __unwindfunclet$?open@?$basic_filebuf@DU?$char_traits@D@std@@@std@@QAEPAV12@PBDHH@Z$0 00430ab0 f   Source.obj
 0002:0001fabb       __ehhandler$?open@?$basic_filebuf@DU?$char_traits@D@std@@@std@@QAEPAV12@PBDHH@Z 00430abb f   Source.obj
 0002:0001faf0       __ehhandler$?pointer_to@?$pointer_traits@PAU?$pair@$$CBV?$basic_string@DU?$char_traits@D@std@@V?$allocator@D@2@@std@@PAVAccount@@@std@@@std@@SAPAU?$pair@$$CBV?$basic_string@DU?$char_traits@D@std@@V?$allocator@D@2@@std@@PAVAccount@@@2@AAU32@@Z 00430af0 f   Source.obj
 0002:0001fb20       __unwindfunclet$?process@Manager@@QAEXXZ$0 00430b20 f   Source.obj
 0002:0001fb2b       __unwindfunclet$?process@Manager@@QAEXXZ$1 00430b2b f   Source.obj
 0002:0001fb36       __ehhandler$?process@Manager@@QAEXXZ 00430b36 f   Source.obj
 0002:0001fb70       __ehhandler$?release@?$unique_ptr@V_Facet_base@std@@U?$default_delete@V_Facet_base@std@@@2@@std@@QAEPAV_Facet_base@2@XZ 00430b70 f   Source.obj
 0002:0001fba0       __ehhandler$?size@?$basic_string@DU?$char_traits@D@std@@V?$allocator@D@2@@std@@QBEIXZ 00430ba0 f   Source.obj
 0002:0001fbd0       __ehhandler$?to_char_type@?$_Narrow_char_traits@DH@std@@SADABH@Z 00430bd0 f   Source.obj
 0002:0001fc00       __ehhandler$?to_int_type@?$_Narrow_char_traits@DH@std@@SAHABD@Z 00430c00 f   Source.obj
 0002:0001fc30       __unwindfunclet$?transaction@Manager@@QAEXXZ$0 00430c30 f   Source.obj
 0002:0001fc38       __unwindfunclet$?transaction@Manager@@QAEXXZ$1 00430c38 f   Source.obj
 0002:0001fc43       __unwindfunclet$?transaction@Manager@@QAEXXZ$2 00430c43 f   Source.obj
 0002:0001fc4e       __unwindfunclet$?transaction@Manager@@QAEXXZ$3 00430c4e f   Source.obj
 0002:0001fc56       __unwindfunclet$?transaction@Manager@@QAEXXZ$4 00430c56 f   Source.obj
 0002:0001fc61       __unwindfunclet$?transaction@Manager@@QAEXXZ$5 00430c61 f   Source.obj
 0002:0001fc6c       __unwindfunclet$?transaction@Manager@@QAEXXZ$6 00430c6c f   Source.obj
 0002:0001fc77       __unwindfunclet$?transaction@Manager@@QAEXXZ$7 00430c77 f   Source.obj
 0002:0001fc82       __unwindfunclet$?transaction@Manager@@QAEXXZ$8 00430c82 f   Source.obj
 0002:0001fc8d       __unwindfunclet$?transaction@Manager@@QAEXXZ$9 00430c8d f   Source.obj
 0002:0001fc95       __unwindfunclet$?transaction@Manager@@QAEXXZ$10 00430c95 f   Source.obj
 0002:0001fca0       __unwindfunclet$?transaction@Manager@@QAEXXZ$11 00430ca0 f   Source.obj
 0002:0001fcab       __unwindfunclet$?transaction@Manager@@QAEXXZ$12 00430cab f   Source.obj
 0002:0001fcb6       __unwindfunclet$?transaction@Manager@@QAEXXZ$13 00430cb6 f   Source.obj
 0002:0001fcc1       __unwindfunclet$?transaction@Manager@@QAEXXZ$14 00430cc1 f   Source.obj
 0002:0001fccc       __unwindfunclet$?transaction@Manager@@QAEXXZ$15 00430ccc f   Source.obj
 0002:0001fcd7       __unwindfunclet$?transaction@Manager@@QAEXXZ$16 00430cd7 f   Source.obj
 0002:0001fce2       __unwindfunclet$?transaction@Manager@@QAEXXZ$17 00430ce2 f   Source.obj
 0002:0001fced       __unwindfunclet$?transaction@Manager@@QAEXXZ$18 00430ced f   Source.obj
 0002:0001fcf8       __unwindfunclet$?transaction@Manager@@QAEXXZ$19 00430cf8 f   Source.obj
 0002:0001fd03       __unwindfunclet$?transaction@Manager@@QAEXXZ$20 00430d03 f   Source.obj
 0002:0001fd0e       __unwindfunclet$?transaction@Manager@@QAEXXZ$21 00430d0e f   Source.obj
 0002:0001fd19       __unwindfunclet$?transaction@Manager@@QAEXXZ$22 00430d19 f   Source.obj
 0002:0001fd24       __unwindfunclet$?transaction@Manager@@QAEXXZ$23 00430d24 f   Source.obj
 0002:0001fd2f       __unwindfunclet$?transaction@Manager@@QAEXXZ$24 00430d2f f   Source.obj
 0002:0001fd3a       __unwindfunclet$?transaction@Manager@@QAEXXZ$25 00430d3a f   Source.obj
 0002:0001fd45       __unwindfunclet$?transaction@Manager@@QAEXXZ$26 00430d45 f   Source.obj
 0002:0001fd50       __unwindfunclet$?transaction@Manager@@QAEXXZ$27 00430d50 f   Source.obj
 0002:0001fd5b       __unwindfunclet$?transaction@Manager@@QAEXXZ$28 00430d5b f   Source.obj
 0002:0001fd66       __unwindfunclet$?transaction@Manager@@QAEXXZ$29 00430d66 f   Source.obj
 0002:0001fd71       __unwindfunclet$?transaction@Manager@@QAEXXZ$30 00430d71 f   Source.obj
 0002:0001fd7c       __unwindfunclet$?transaction@Manager@@QAEXXZ$31 00430d7c f   Source.obj
 0002:0001fd87       __unwindfunclet$?transaction@Manager@@QAEXXZ$32 00430d87 f   Source.obj
 0002:0001fd92       __unwindfunclet$?transaction@Manager@@QAEXXZ$33 00430d92 f   Source.obj
 0002:0001fd9d       __unwindfunclet$?transaction@Manager@@QAEXXZ$34 00430d9d f   Source.obj
 0002:0001fda8       __unwindfunclet$?transaction@Manager@@QAEXXZ$35 00430da8 f   Source.obj
 0002:0001fdb3       __unwindfunclet$?transaction@Manager@@QAEXXZ$36 00430db3 f   Source.obj
 0002:0001fdbe       __unwindfunclet$?transaction@Manager@@QAEXXZ$37 00430dbe f   Source.obj
 0002:0001fdc9       __unwindfunclet$?transaction@Manager@@QAEXXZ$38 00430dc9 f   Source.obj
 0002:0001fdd4       __ehhandler$?transaction@Manager@@QAEXXZ 00430dd4 f   Source.obj
 0002:0001fe40       __unwindfunclet$?uflow@?$basic_filebuf@DU?$char_traits@D@std@@@std@@MAEHXZ$0 00430e40 f   Source.obj
 0002:0001fe48       __ehhandler$?uflow@?$basic_filebuf@DU?$char_traits@D@std@@@std@@MAEHXZ 00430e48 f   Source.obj
 0002:0001fe80       __unwindfunclet$_main$2    00430e80 f   Source.obj
 0002:0001fe8b       __ehhandler$_main          00430e8b f   Source.obj
 0002:0001fec0       __ehhandler$??$_Traits_find_first_not_of@U?$char_traits@D@std@@@std@@YAIQBDII0IU?$integral_constant@_N$00@0@@Z 00430ec0 f   StaticLib:trim.obj
 0002:0001ff00       __ehhandler$??$_Traits_find_first_not_of@U?$char_traits@D@std@@@std@@YAIQBDII0IU?$integral_constant@_N$0A@@0@@Z 00430f00 f   StaticLib:trim.obj
 0002:0001ff30       __ehhandler$??$_Traits_find_last_not_of@U?$char_traits@D@std@@@std@@YAIQBDII0IU?$integral_constant@_N$00@0@@Z 00430f30 f   StaticLib:trim.obj
 0002:0001ff70       __ehhandler$??$_Traits_find_last_not_of@U?$char_traits@D@std@@@std@@YAIQBDII0IU?$integral_constant@_N$0A@@0@@Z 00430f70 f   StaticLib:trim.obj
 0002:0001ffa0       __ehhandler$?find@?$_Narrow_char_traits@DH@std@@SAPBDQBDIABD@Z 00430fa0 f   StaticLib:trim.obj
 0002:0001ffd0       __ehhandler$?find_first_not_of@?$basic_string@DU?$char_traits@D@std@@V?$allocator@D@2@@std@@QBEIQBDI@Z 00430fd0 f   StaticLib:trim.obj
 0002:00020000       __ehhandler$?find_last_not_of@?$basic_string@DU?$char_traits@D@std@@V?$allocator@D@2@@std@@QBEIQBDI@Z 00431000 f   StaticLib:trim.obj
 0002:00020030       __unwindfunclet$?_Facet_Register@std@@YAXPAV_Facet_base@1@@Z$0 00431030 f   msvcprtd:locale0_implib.obj
 0002:0002003b       __ehhandler$?_Facet_Register@std@@YAXPAV_Facet_base@1@@Z 0043103b f   msvcprtd:locale0_implib.obj
 0002:000212c0       ??__F_Fac_tidy_reg@std@@YAXXZ 004322c0 f   msvcprtd:locale0_implib.obj
 0003:00000104       ?pre_cpp_initializer@@3P6AXXZA 00434104     MSVCRTD:exe_main.obj
 0003:00000208       ?_Fac_tidy_reg$initializer$@std@@3P6AXXZA 00434208     msvcprtd:locale0_implib.obj
 0003:00000514       ?pre_c_initializer@@3P6AHXZA 00434514     MSVCRTD:exe_main.obj
 0003:00000618       ?post_pgo_initializer@@3P6AHXZA 00434618     MSVCRTD:exe_main.obj
 0003:00000c30       ?piecewise_construct@std@@3Upiecewise_construct_t@1@B 00434c30     Source.obj
 0003:00002390       ?_RTC_ErrorMessages@@3QBQBDB 00436390     MSVCRTD:error.obj
 0003:000023a8       ?_RTC_NoFalsePositives@@3QBHB 004363a8     MSVCRTD:error.obj
 0003:000023c0       ?stack_premsg@@3QBDB       004363c0     MSVCRTD:error.obj
 0003:000023dc       ?stack_postmsg@@3QBDB      004363dc     MSVCRTD:error.obj
 0003:000023f0       ?uninit_premsg@@3QBDB      004363f0     MSVCRTD:error.obj
 0003:00002400       ?uninit_postmsg@@3QBDB     00436400     MSVCRTD:error.obj
 0003:00002a50       _GS_ExceptionPointers      00436a50     MSVCRTD:gs_report.obj
 0003:00002a5c       ?_RTC_errlist@@3QBQBDB     00436a5c     MSVCRTD:userapi.obj
 0003:00002b40       ?mspdbName@@3QB_WB         00436b40     MSVCRTD:pdblkup.obj
 0003:00002b64       ?debugCrtFileName@@3QB_WB  00436b64     MSVCRTD:pdblkup.obj
 0003:00002cf0       ?dllExt@?1??GetPdbDllPathFromFilePath@@YAHPB_WPA_WI@Z@4QB_WB 00436cf0     MSVCRTD:pdblkup.obj
 0003:00002cfc       ?mspdbFilename@?1??GetPdbDllPathFromFilePath@@YAHPB_WPA_WI@Z@4QB_WB 00436cfc     MSVCRTD:pdblkup.obj
 0003:00003ae4       __RTC_InitBase.rtc$IMZ     00437ae4     Source.obj
 0003:00003ae8       __RTC_InitBase.rtc$IMZ     00437ae8     StaticLib:trim.obj
 0003:00003df8       __RTC_Shutdown.rtc$TMZ     00437df8     Source.obj
 0003:00003dfc       __RTC_Shutdown.rtc$TMZ     00437dfc     StaticLib:trim.obj
 0003:00004008       __ehfuncinfo$??2@YAPAXIPAX@Z 00438008     Source.obj
 0003:00004030       __ehfuncinfo$?max@?$numeric_limits@H@std@@SAHXZ 00438030     Source.obj
 0003:00004058       __ehfuncinfo$??0exception@std@@QAE@QBD@Z 00438058     Source.obj
 0003:00004080       __ehfuncinfo$??0exception@std@@QAE@QBDH@Z 00438080     Source.obj
 0003:000040a8       __ehfuncinfo$??0exception@std@@QAE@ABV01@@Z 004380a8     Source.obj
 0003:000040d0       __ehfuncinfo$??1exception@std@@UAE@XZ 004380d0     Source.obj
 0003:000040f8       __ehfuncinfo$??0bad_alloc@std@@AAE@QBD@Z 004380f8     Source.obj
 0003:00004120       __ehfuncinfo$??0bad_array_new_length@std@@QAE@XZ 00438120     Source.obj
 0003:00004148       __ehfuncinfo$??0_Container_proxy@std@@QAE@PAU_Container_base12@1@@Z 00438148     Source.obj
 0003:00004170       __ehfuncinfo$?_Orphan_all@_Container_base12@std@@QAEXXZ 00438170     Source.obj
 0003:00004198       __ehfuncinfo$?_Swap_proxy_and_iterators@_Container_base12@std@@QAEXAAU12@@Z 00438198     Source.obj
 0003:000041c0       __ehfuncinfo$??$_Construct_in_place@U_Container_proxy@std@@PAU_Container_base12@2@@std@@YAXAAU_Container_proxy@0@$$QAPAU_Container_base12@0@@Z 004381c0     Source.obj
 0003:000041e8       __ehfuncinfo$??0_Iterator_base12@std@@QAE@XZ 004381e8     Source.obj
 0003:00004210       __ehfuncinfo$??0_Iterator_base12@std@@QAE@ABU01@@Z 00438210     Source.obj
 0003:00004238       __ehfuncinfo$??4_Iterator_base12@std@@QAEAAU01@ABU01@@Z 00438238     Source.obj
 0003:00004260       __ehfuncinfo$??1_Iterator_base12@std@@QAE@XZ 00438260     Source.obj
 0003:00004288       __ehfuncinfo$?_Adopt@_Iterator_base12@std@@QAEXPBU_Container_base12@2@@Z 00438288     Source.obj
 0003:000042b0       __ehfuncinfo$?_Getcont@_Iterator_base12@std@@QBEPBU_Container_base12@2@XZ 004382b0     Source.obj
 0003:000042d8       __ehfuncinfo$?_Orphan_me@_Iterator_base12@std@@QAEXXZ 004382d8     Source.obj
 0003:00004300       __ehfuncinfo$?_Release@_Basic_container_proxy_ptr12@std@@QAEXXZ 00438300     Source.obj
 0003:00004328       __ehfuncinfo$??$addressof@U_Container_base12@std@@@std@@YAPAU_Container_base12@0@AAU10@@Z 00438328     Source.obj
 0003:00004350       __ehfuncinfo$?compare@?$_Narrow_char_traits@DH@std@@SAHQBD0I@Z 00438350     Source.obj
 0003:00004378       __ehfuncinfo$?length@?$_Narrow_char_traits@DH@std@@SAIQBD@Z 00438378     Source.obj
 0003:000043a0       __ehfuncinfo$?copy@?$_Narrow_char_traits@DH@std@@SAPADQADQBDI@Z 004383a0     Source.obj
 0003:000043c8       __ehfuncinfo$?move@?$_Narrow_char_traits@DH@std@@SAPADQADQBDI@Z 004383c8     Source.obj
 0003:000043f0       __ehfuncinfo$?assign@?$_Narrow_char_traits@DH@std@@SAXAADABD@Z 004383f0     Source.obj
 0003:00004418       __ehfuncinfo$?to_char_type@?$_Narrow_char_traits@DH@std@@SADABH@Z 00438418     Source.obj
 0003:00004440       __ehfuncinfo$?to_int_type@?$_Narrow_char_traits@DH@std@@SAHABD@Z 00438440     Source.obj
 0003:00004468       __ehfuncinfo$?eq_int_type@?$_Narrow_char_traits@DH@std@@SA_NABH0@Z 00438468     Source.obj
 0003:00004490       __ehfuncinfo$?not_eof@?$_Narrow_char_traits@DH@std@@SAHABH@Z 00438490     Source.obj
 0003:000044b8       __ehfuncinfo$?eof@?$_Narrow_char_traits@DH@std@@SAHXZ 004384b8     Source.obj
 0003:000044e0       __ehfuncinfo$??$_Min_value@I@std@@YAABIABI0@Z 004384e0     Source.obj
 0003:00004508       __ehfuncinfo$??0?$allocator@D@std@@QAE@XZ 00438508     Source.obj
 0003:00004530       __ehfuncinfo$?max_size@?$_Default_allocator_traits@V?$allocator@D@std@@@std@@SAIABV?$allocator@D@2@@Z 00438530     Source.obj
 0003:00004558       __ehfuncinfo$?_Clamp_suffix_size@?$_String_val@U?$_Simple_types@D@std@@@std@@QBEIII@Z 00438558     Source.obj
 0003:00004580       __ehfuncinfo$??1_Bxty@?$_String_val@U?$_Simple_types@D@std@@@std@@QAE@XZ 00438580     Source.obj
 0003:000045a8       __unwindtable$??0?$basic_string@DU?$char_traits@D@std@@V?$allocator@D@2@@std@@QAE@ABV01@@Z 004385a8     Source.obj
 0003:000045b8       __ehfuncinfo$??0?$basic_string@DU?$char_traits@D@std@@V?$allocator@D@2@@std@@QAE@ABV01@@Z 004385b8     Source.obj
 0003:000045e4       __ehfuncinfo$??0?$basic_string@DU?$char_traits@D@std@@V?$allocator@D@2@@std@@QAE@XZ 004385e4     Source.obj
 0003:0000460c       __unwindtable$??0?$basic_string@DU?$char_traits@D@std@@V?$allocator@D@2@@std@@QAE@ABV01@IIABV?$allocator@D@1@@Z 0043860c     Source.obj
 0003:0000461c       __ehfuncinfo$??0?$basic_string@DU?$char_traits@D@std@@V?$allocator@D@2@@std@@QAE@ABV01@IIABV?$allocator@D@1@@Z 0043861c     Source.obj
 0003:00004648       __ehfuncinfo$??0?$basic_string@DU?$char_traits@D@std@@V?$allocator@D@2@@std@@QAE@$$QAV01@@Z 00438648     Source.obj
 0003:00004670       __ehfuncinfo$?_Memcpy_val_from@?$basic_string@DU?$char_traits@D@std@@V?$allocator@D@2@@std@@AAEXABV12@@Z 00438670     Source.obj
 0003:00004698       __ehfuncinfo$?_Take_contents@?$basic_string@DU?$char_traits@D@std@@V?$allocator@D@2@@std@@AAEXAAV12@U?$integral_constant@_N$00@2@@Z 00438698     Source.obj
 0003:000046c0       __ehfuncinfo$??1?$basic_string@DU?$char_traits@D@std@@V?$allocator@D@2@@std@@QAE@XZ 004386c0     Source.obj
 0003:000046e8       __ehfuncinfo$?c_str@?$basic_string@DU?$char_traits@D@std@@V?$allocator@D@2@@std@@QBEPBDXZ 004386e8     Source.obj
 0003:00004710       __ehfuncinfo$?data@?$basic_string@DU?$char_traits@D@std@@V?$allocator@D@2@@std@@QBEPBDXZ 00438710     Source.obj
 0003:00004738       __ehfuncinfo$?length@?$basic_string@DU?$char_traits@D@std@@V?$allocator@D@2@@std@@QBEIXZ 00438738     Source.obj
 0003:00004760       __ehfuncinfo$?size@?$basic_string@DU?$char_traits@D@std@@V?$allocator@D@2@@std@@QBEIXZ 00438760     Source.obj
 0003:00004788       __ehfuncinfo$?max_size@?$basic_string@DU?$char_traits@D@std@@V?$allocator@D@2@@std@@QBEIXZ 00438788     Source.obj
 0003:000047b0       __ehfuncinfo$?_Equal@?$basic_string@DU?$char_traits@D@std@@V?$allocator@D@2@@std@@QBE_NQBD@Z 004387b0     Source.obj
 0003:000047d8       __ehfuncinfo$?compare@?$basic_string@DU?$char_traits@D@std@@V?$allocator@D@2@@std@@QBEHABV12@@Z 004387d8     Source.obj
 0003:00004800       __ehfuncinfo$?get_allocator@?$basic_string@DU?$char_traits@D@std@@V?$allocator@D@2@@std@@QBE?AV?$allocator@D@2@XZ 00438800     Source.obj
 0003:00004828       __ehfuncinfo$?_Calculate_growth@?$basic_string@DU?$char_traits@D@std@@V?$allocator@D@2@@std@@CAIIII@Z 00438828     Source.obj
 0003:00004850       __ehfuncinfo$?_Calculate_growth@?$basic_string@DU?$char_traits@D@std@@V?$allocator@D@2@@std@@ABEII@Z 00438850     Source.obj
 0003:00004878       __ehfuncinfo$?_Tidy_init@?$basic_string@DU?$char_traits@D@std@@V?$allocator@D@2@@std@@AAEXXZ 00438878     Source.obj
 0003:000048a0       __ehfuncinfo$?_Tidy_deallocate@?$basic_string@DU?$char_traits@D@std@@V?$allocator@D@2@@std@@AAEXXZ 004388a0     Source.obj
 0003:000048c8       __ehfuncinfo$?_Getal@?$basic_string@DU?$char_traits@D@std@@V?$allocator@D@2@@std@@AAEAAV?$allocator@D@2@XZ 004388c8     Source.obj
 0003:000048f0       __ehfuncinfo$?_Getal@?$basic_string@DU?$char_traits@D@std@@V?$allocator@D@2@@std@@ABEABV?$allocator@D@2@XZ 004388f0     Source.obj
 0003:00004918       __ehfuncinfo$?_Get_first@?$_Compressed_pair@V?$allocator@D@std@@V?$_String_val@U?$_Simple_types@D@std@@@2@$00@std@@QAEAAV?$allocator@D@2@XZ 00438918     Source.obj
 0003:00004940       __ehfuncinfo$?_Get_first@?$_Compressed_pair@V?$allocator@D@std@@V?$_String_val@U?$_Simple_types@D@std@@@2@$00@std@@QBEABV?$allocator@D@2@XZ 00438940     Source.obj
 0003:00004968       __ehfuncinfo$??0bad_cast@std@@QAE@XZ 00438968     Source.obj
 0003:00004990       __ehfuncinfo$??1locale@std@@QAE@XZ 00438990     Source.obj
 0003:000049b8       __ehfuncinfo$??R?$default_delete@V_Facet_base@std@@@std@@QBEXPAV_Facet_base@1@@Z 004389b8     Source.obj
 0003:000049e0       __ehfuncinfo$??1?$unique_ptr@V_Facet_base@std@@U?$default_delete@V_Facet_base@std@@@2@@std@@QAE@XZ 004389e0     Source.obj
 0003:00004a08       __ehfuncinfo$?release@?$unique_ptr@V_Facet_base@std@@U?$default_delete@V_Facet_base@std@@@2@@std@@QAEPAV_Facet_base@2@XZ 00438a08     Source.obj
 0003:00004a30       __ehfuncinfo$?_Get_first@?$_Compressed_pair@U?$default_delete@V_Facet_base@std@@@std@@PAV_Facet_base@2@$00@std@@QAEAAU?$default_delete@V_Facet_base@std@@@2@XZ 00438a30     Source.obj
 0003:00004a58       __ehfuncinfo$??0Account@@QAE@XZ 00438a58     Source.obj
 0003:00004a80       __catchsym$??$?6U?$char_traits@D@std@@@std@@YAAAV?$basic_ostream@DU?$char_traits@D@std@@@0@AAV10@PBD@Z$3 00438a80     Source.obj
 0003:00004a90       __tryblocktable$??$?6U?$char_traits@D@std@@@std@@YAAAV?$basic_ostream@DU?$char_traits@D@std@@@0@AAV10@PBD@Z 00438a90     Source.obj
 0003:00004aa4       __unwindtable$??$?6U?$char_traits@D@std@@@std@@YAAAV?$basic_ostream@DU?$char_traits@D@std@@@0@AAV10@PBD@Z 00438aa4     Source.obj
 0003:00004abc       __ehfuncinfo$??$?6U?$char_traits@D@std@@@std@@YAAAV?$basic_ostream@DU?$char_traits@D@std@@@0@AAV10@PBD@Z 00438abc     Source.obj
 0003:00004aec       __catchsym$??$?6U?$char_traits@D@std@@@std@@YAAAV?$basic_ostream@DU?$char_traits@D@std@@@0@AAV10@D@Z$3 00438aec     Source.obj
 0003:00004afc       __tryblocktable$??$?6U?$char_traits@D@std@@@std@@YAAAV?$basic_ostream@DU?$char_traits@D@std@@@0@AAV10@D@Z 00438afc     Source.obj
 0003:00004b10       __unwindtable$??$?6U?$char_traits@D@std@@@std@@YAAAV?$basic_ostream@DU?$char_traits@D@std@@@0@AAV10@D@Z 00438b10     Source.obj
 0003:00004b28       __ehfuncinfo$??$?6U?$char_traits@D@std@@@std@@YAAAV?$basic_ostream@DU?$char_traits@D@std@@@0@AAV10@D@Z 00438b28     Source.obj
 0003:00004b58       __ehfuncinfo$??0SimpleAcc@@QAE@XZ 00438b58     Source.obj
 0003:00004b80       __ehfuncinfo$??0BonusAcc@@QAE@XZ 00438b80     Source.obj
 0003:00004ba8       __ehfuncinfo$??0ServiceAcc@@QAE@XZ 00438ba8     Source.obj
 0003:00004bd0       __ehfuncinfo$??0BalancedAcc@@QAE@XZ 00438bd0     Source.obj
 0003:00004bf8       __ehfuncinfo$??0?$tuple@$$V@std@@QAE@XZ 00438bf8     Source.obj
 0003:00004c20       __ehfuncinfo$??0?$tuple@$$V@std@@QAE@ABV01@@Z 00438c20     Source.obj
 0003:00004c48       __ehfuncinfo$??0?$allocator@U?$_Tree_node@U?$pair@$$CBV?$basic_string@DU?$char_traits@D@std@@V?$allocator@D@2@@std@@PAVAccount@@@std@@PAX@std@@@std@@QAE@XZ 00438c48     Source.obj
 0003:00004c70       __ehfuncinfo$?max_size@?$_Default_allocator_traits@V?$allocator@U?$_Tree_node@U?$pair@$$CBV?$basic_string@DU?$char_traits@D@std@@V?$allocator@D@2@@std@@PAVAccount@@@std@@PAX@std@@@std@@@std@@SAIABV?$allocator@U?$_Tree_node@U?$pair@$$CBV?$basic_string@DU?$char_traits@D@std@@V?$allocator@D@2@@std@@PAVAccount@@@std@@PAX@std@@@2@@Z 00438c70     Source.obj
 0003:00004c98       __ehfuncinfo$??1?$_Tree@V?$_Tmap_traits@V?$basic_string@DU?$char_traits@D@std@@V?$allocator@D@2@@std@@PAVAccount@@U?$less@V?$basic_string@DU?$char_traits@D@std@@V?$allocator@D@2@@std@@@2@V?$allocator@U?$pair@$$CBV?$basic_string@DU?$char_traits@D@std@@V?$allocator@D@2@@std@@PAVAccount@@@std@@@2@$0A@@std@@@std@@QAE@XZ 00438c98     Source.obj
 0003:00004cc0       __ehfuncinfo$?begin@?$_Tree@V?$_Tmap_traits@V?$basic_string@DU?$char_traits@D@std@@V?$allocator@D@2@@std@@PAVAccount@@U?$less@V?$basic_string@DU?$char_traits@D@std@@V?$allocator@D@2@@std@@@2@V?$allocator@U?$pair@$$CBV?$basic_string@DU?$char_traits@D@std@@V?$allocator@D@2@@std@@PAVAccount@@@std@@@2@$0A@@std@@@std@@QAE?AV?$_Tree_iterator@V?$_Tree_val@U?$_Tree_simple_types@U?$pair@$$CBV?$basic_string@DU?$char_traits@D@std@@V?$allocator@D@2@@std@@PAVAccount@@@std@@@std@@@std@@@2@XZ 00438cc0     Source.obj
 0003:00004ce8       __ehfuncinfo$?end@?$_Tree@V?$_Tmap_traits@V?$basic_string@DU?$char_traits@D@std@@V?$allocator@D@2@@std@@PAVAccount@@U?$less@V?$basic_string@DU?$char_traits@D@std@@V?$allocator@D@2@@std@@@2@V?$allocator@U?$pair@$$CBV?$basic_string@DU?$char_traits@D@std@@V?$allocator@D@2@@std@@PAVAccount@@@std@@@2@$0A@@std@@@std@@QAE?AV?$_Tree_iterator@V?$_Tree_val@U?$_Tree_simple_types@U?$pair@$$CBV?$basic_string@DU?$char_traits@D@std@@V?$allocator@D@2@@std@@PAVAccount@@@std@@@std@@@std@@@2@XZ 00438ce8     Source.obj
 0003:00004d10       __ehfuncinfo$?max_size@?$_Tree@V?$_Tmap_traits@V?$basic_string@DU?$char_traits@D@std@@V?$allocator@D@2@@std@@PAVAccount@@U?$less@V?$basic_string@DU?$char_traits@D@std@@V?$allocator@D@2@@std@@@2@V?$allocator@U?$pair@$$CBV?$basic_string@DU?$char_traits@D@std@@V?$allocator@D@2@@std@@PAVAccount@@@std@@@2@$0A@@std@@@std@@QBEIXZ 00438d10     Source.obj
 0003:00004d38       __unwindtable$?_Alloc_sentinel_and_proxy@?$_Tree@V?$_Tmap_traits@V?$basic_string@DU?$char_traits@D@std@@V?$allocator@D@2@@std@@PAVAccount@@U?$less@V?$basic_string@DU?$char_traits@D@std@@V?$allocator@D@2@@std@@@2@V?$allocator@U?$pair@$$CBV?$basic_string@DU?$char_traits@D@std@@V?$allocator@D@2@@std@@PAVAccount@@@std@@@2@$0A@@std@@@std@@IAEXXZ 00438d38     Source.obj
 0003:00004d40       __ehfuncinfo$?_Alloc_sentinel_and_proxy@?$_Tree@V?$_Tmap_traits@V?$basic_string@DU?$char_traits@D@std@@V?$allocator@D@2@@std@@PAVAccount@@U?$less@V?$basic_string@DU?$char_traits@D@std@@V?$allocator@D@2@@std@@@2@V?$allocator@U?$pair@$$CBV?$basic_string@DU?$char_traits@D@std@@V?$allocator@D@2@@std@@PAVAccount@@@std@@@2@$0A@@std@@@std@@IAEXXZ 00438d40     Source.obj
 0003:00004d68       __ehfuncinfo$?_Getcomp@?$_Tree@V?$_Tmap_traits@V?$basic_string@DU?$char_traits@D@std@@V?$allocator@D@2@@std@@PAVAccount@@U?$less@V?$basic_string@DU?$char_traits@D@std@@V?$allocator@D@2@@std@@@2@V?$allocator@U?$pair@$$CBV?$basic_string@DU?$char_traits@D@std@@V?$allocator@D@2@@std@@PAVAccount@@@std@@@2@$0A@@std@@@std@@IBEABU?$less@V?$basic_string@DU?$char_traits@D@std@@V?$allocator@D@2@@std@@@2@XZ 00438d68     Source.obj
 0003:00004d90       __ehfuncinfo$?_Getal@?$_Tree@V?$_Tmap_traits@V?$basic_string@DU?$char_traits@D@std@@V?$allocator@D@2@@std@@PAVAccount@@U?$less@V?$basic_string@DU?$char_traits@D@std@@V?$allocator@D@2@@std@@@2@V?$allocator@U?$pair@$$CBV?$basic_string@DU?$char_traits@D@std@@V?$allocator@D@2@@std@@PAVAccount@@@std@@@2@$0A@@std@@@std@@IAEAAV?$allocator@U?$_Tree_node@U?$pair@$$CBV?$basic_string@DU?$char_traits@D@std@@V?$allocator@D@2@@std@@PAVAccount@@@std@@PAX@std@@@2@XZ 00438d90     Source.obj
 0003:00004db8       __ehfuncinfo$?_Getal@?$_Tree@V?$_Tmap_traits@V?$basic_string@DU?$char_traits@D@std@@V?$allocator@D@2@@std@@PAVAccount@@U?$less@V?$basic_string@DU?$char_traits@D@std@@V?$allocator@D@2@@std@@@2@V?$allocator@U?$pair@$$CBV?$basic_string@DU?$char_traits@D@std@@V?$allocator@D@2@@std@@PAVAccount@@@std@@@2@$0A@@std@@@std@@IBEABV?$allocator@U?$_Tree_node@U?$pair@$$CBV?$basic_string@DU?$char_traits@D@std@@V?$allocator@D@2@@std@@PAVAccount@@@std@@PAX@std@@@2@XZ 00438db8     Source.obj
 0003:00004de0       __ehfuncinfo$?_Get_scary@?$_Tree@V?$_Tmap_traits@V?$basic_string@DU?$char_traits@D@std@@V?$allocator@D@2@@std@@PAVAccount@@U?$less@V?$basic_string@DU?$char_traits@D@std@@V?$allocator@D@2@@std@@@2@V?$allocator@U?$pair@$$CBV?$basic_string@DU?$char_traits@D@std@@V?$allocator@D@2@@std@@PAVAccount@@@std@@@2@$0A@@std@@@std@@IAEPAV?$_Tree_val@U?$_Tree_simple_types@U?$pair@$$CBV?$basic_string@DU?$char_traits@D@std@@V?$allocator@D@2@@std@@PAVAccount@@@std@@@std@@@2@XZ 00438de0     Source.obj
 0003:00004e08       __ehfuncinfo$?_Get_scary@?$_Tree@V?$_Tmap_traits@V?$basic_string@DU?$char_traits@D@std@@V?$allocator@D@2@@std@@PAVAccount@@U?$less@V?$basic_string@DU?$char_traits@D@std@@V?$allocator@D@2@@std@@@2@V?$allocator@U?$pair@$$CBV?$basic_string@DU?$char_traits@D@std@@V?$allocator@D@2@@std@@PAVAccount@@@std@@@2@$0A@@std@@@std@@IBEPBV?$_Tree_val@U?$_Tree_simple_types@U?$pair@$$CBV?$basic_string@DU?$char_traits@D@std@@V?$allocator@D@2@@std@@PAVAccount@@@std@@@std@@@2@XZ 00438e08     Source.obj
 0003:00004e30       __ehfuncinfo$?_Insert_node@?$_Tree_val@U?$_Tree_simple_types@U?$pair@$$CBV?$basic_string@DU?$char_traits@D@std@@V?$allocator@D@2@@std@@PAVAccount@@@std@@@std@@@std@@QAEPAU?$_Tree_node@U?$pair@$$CBV?$basic_string@DU?$char_traits@D@std@@V?$allocator@D@2@@std@@PAVAccount@@@std@@PAX@2@U?$_Tree_id@PAU?$_Tree_node@U?$pair@$$CBV?$basic_string@DU?$char_traits@D@std@@V?$allocator@D@2@@std@@PAVAccount@@@std@@PAX@std@@@2@QAU32@@Z 00438e30     Source.obj
 0003:00004e58       __ehfuncinfo$?_Get_first@?$_Compressed_pair@V?$allocator@U?$_Tree_node@U?$pair@$$CBV?$basic_string@DU?$char_traits@D@std@@V?$allocator@D@2@@std@@PAVAccount@@@std@@PAX@std@@@std@@V?$_Tree_val@U?$_Tree_simple_types@U?$pair@$$CBV?$basic_string@DU?$char_traits@D@std@@V?$allocator@D@2@@std@@PAVAccount@@@std@@@std@@@2@$00@std@@QAEAAV?$allocator@U?$_Tree_node@U?$pair@$$CBV?$basic_string@DU?$char_traits@D@std@@V?$allocator@D@2@@std@@PAVAccount@@@std@@PAX@std@@@2@XZ 00438e58     Source.obj
 0003:00004e80       __ehfuncinfo$?_Get_first@?$_Compressed_pair@V?$allocator@U?$_Tree_node@U?$pair@$$CBV?$basic_string@DU?$char_traits@D@std@@V?$allocator@D@2@@std@@PAVAccount@@@std@@PAX@std@@@std@@V?$_Tree_val@U?$_Tree_simple_types@U?$pair@$$CBV?$basic_string@DU?$char_traits@D@std@@V?$allocator@D@2@@std@@PAVAccount@@@std@@@std@@@2@$00@std@@QBEABV?$allocator@U?$_Tree_node@U?$pair@$$CBV?$basic_string@DU?$char_traits@D@std@@V?$allocator@D@2@@std@@PAVAccount@@@std@@PAX@std@@@2@XZ 00438e80     Source.obj
 0003:00004ea8       __ehfuncinfo$?_Get_first@?$_Compressed_pair@U?$less@V?$basic_string@DU?$char_traits@D@std@@V?$allocator@D@2@@std@@@std@@V?$_Compressed_pair@V?$allocator@U?$_Tree_node@U?$pair@$$CBV?$basic_string@DU?$char_traits@D@std@@V?$allocator@D@2@@std@@PAVAccount@@@std@@PAX@std@@@std@@V?$_Tree_val@U?$_Tree_simple_types@U?$pair@$$CBV?$basic_string@DU?$char_traits@D@std@@V?$allocator@D@2@@std@@PAVAccount@@@std@@@std@@@2@$00@2@$00@std@@QBEABU?$less@V?$basic_string@DU?$char_traits@D@std@@V?$allocator@D@2@@std@@@2@XZ 00438ea8     Source.obj
 0003:00004ed0       __unwindtable$??0?$basic_ifstream@DU?$char_traits@D@std@@@std@@QAE@PBDHH@Z 00438ed0     Source.obj
 0003:00004ee8       __ehfuncinfo$??0?$basic_ifstream@DU?$char_traits@D@std@@@std@@QAE@PBDHH@Z 00438ee8     Source.obj
 0003:00004f14       __ehfuncinfo$??1?$basic_ifstream@DU?$char_traits@D@std@@@std@@UAE@XZ 00438f14     Source.obj
 0003:00004f3c       __unwindtable$??0?$basic_filebuf@DU?$char_traits@D@std@@@std@@QAE@PAU_iobuf@@@Z 00438f3c     Source.obj
 0003:00004f44       __ehfuncinfo$??0?$basic_filebuf@DU?$char_traits@D@std@@@std@@QAE@PAU_iobuf@@@Z 00438f44     Source.obj
 0003:00004f6c       __ehfuncinfo$??1?$basic_filebuf@DU?$char_traits@D@std@@@std@@UAE@XZ 00438f6c     Source.obj
 0003:00004f94       __unwindtable$?open@?$basic_filebuf@DU?$char_traits@D@std@@@std@@QAEPAV12@PBDHH@Z 00438f94     Source.obj
 0003:00004f9c       __ehfuncinfo$?open@?$basic_filebuf@DU?$char_traits@D@std@@@std@@QAEPAV12@PBDHH@Z 00438f9c     Source.obj
 0003:00004fc4       __unwindtable$?uflow@?$basic_filebuf@DU?$char_traits@D@std@@@std@@MAEHXZ 00438fc4     Source.obj
 0003:00004fcc       __ehfuncinfo$?uflow@?$basic_filebuf@DU?$char_traits@D@std@@@std@@MAEHXZ 00438fcc     Source.obj
 0003:00004ff4       __unwindtable$??0?$basic_ofstream@DU?$char_traits@D@std@@@std@@QAE@PBDHH@Z 00438ff4     Source.obj
 0003:0000500c       __ehfuncinfo$??0?$basic_ofstream@DU?$char_traits@D@std@@@std@@QAE@PBDHH@Z 0043900c     Source.obj
 0003:00005038       __ehfuncinfo$??1?$basic_ofstream@DU?$char_traits@D@std@@@std@@UAE@XZ 00439038     Source.obj
 0003:00005060       __ehfuncinfo$??0Manager@@QAE@XZ 00439060     Source.obj
 0003:00005084       __unwindtable$??0Manager@@QAE@XZ 00439084     Source.obj
 0003:000050bc       __ehfuncinfo$?convert@Manager@@QAE?AW4accounttype@@AAV?$basic_string@DU?$char_traits@D@std@@V?$allocator@D@2@@std@@@Z 004390bc     Source.obj
 0003:000050e0       __unwindtable$?convert@Manager@@QAE?AW4accounttype@@AAV?$basic_string@DU?$char_traits@D@std@@V?$allocator@D@2@@std@@@Z 004390e0     Source.obj
 0003:00005110       __ehfuncinfo$?create@Manager@@QAEPAVAccount@@XZ 00439110     Source.obj
 0003:00005134       __unwindtable$?create@Manager@@QAEPAVAccount@@XZ 00439134     Source.obj
 0003:000051e8       __unwindtable$?process@Manager@@QAEXXZ 004391e8     Source.obj
 0003:000051f8       __ehfuncinfo$?process@Manager@@QAEXXZ 004391f8     Source.obj
 0003:00005224       __ehfuncinfo$?transaction@Manager@@QAEXXZ 00439224     Source.obj
 0003:00005248       __unwindtable$?transaction@Manager@@QAEXXZ 00439248     Source.obj
 0003:00005380       __catchsym$??$getline@DU?$char_traits@D@std@@V?$allocator@D@2@@std@@YAAAV?$basic_istream@DU?$char_traits@D@std@@@0@$$QAV10@AAV?$basic_string@DU?$char_traits@D@std@@V?$allocator@D@2@@0@D@Z$3 00439380     Source.obj
 0003:00005390       __tryblocktable$??$getline@DU?$char_traits@D@std@@V?$allocator@D@2@@std@@YAAAV?$basic_istream@DU?$char_traits@D@std@@@0@$$QAV10@AAV?$basic_string@DU?$char_traits@D@std@@V?$allocator@D@2@@0@D@Z 00439390     Source.obj
 0003:000053a4       __unwindtable$??$getline@DU?$char_traits@D@std@@V?$allocator@D@2@@std@@YAAAV?$basic_istream@DU?$char_traits@D@std@@@0@$$QAV10@AAV?$basic_string@DU?$char_traits@D@std@@V?$allocator@D@2@@0@D@Z 004393a4     Source.obj
 0003:000053bc       __ehfuncinfo$??$getline@DU?$char_traits@D@std@@V?$allocator@D@2@@std@@YAAAV?$basic_istream@DU?$char_traits@D@std@@@0@$$QAV10@AAV?$basic_string@DU?$char_traits@D@std@@V?$allocator@D@2@@0@D@Z 004393bc     Source.obj
 0003:000053ec       __ehfuncinfo$??$?0V?$basic_string@DU?$char_traits@D@std@@V?$allocator@D@2@@std@@AAPAVAccount@@$0A@@?$pair@$$CBV?$basic_string@DU?$char_traits@D@std@@V?$allocator@D@2@@std@@PAVAccount@@@std@@QAE@$$QAV?$basic_string@DU?$char_traits@D@std@@V?$allocator@D@2@@1@AAPAVAccount@@@Z 004393ec     Source.obj
 0003:00005414       __unwindtable$??E?$_Tree_iterator@V?$_Tree_val@U?$_Tree_simple_types@U?$pair@$$CBV?$basic_string@DU?$char_traits@D@std@@V?$allocator@D@2@@std@@PAVAccount@@@std@@@std@@@std@@@std@@QAE?AV01@H@Z 00439414     Source.obj
 0003:0000541c       __ehfuncinfo$??E?$_Tree_iterator@V?$_Tree_val@U?$_Tree_simple_types@U?$pair@$$CBV?$basic_string@DU?$char_traits@D@std@@V?$allocator@D@2@@std@@PAVAccount@@@std@@@std@@@std@@@std@@QAE?AV01@H@Z 0043941c     Source.obj
 0003:00005444       __catchsym$_main$3         00439444     Source.obj
 0003:00005454       __tryblocktable$_main      00439454     Source.obj
 0003:00005468       __unwindtable$_main        00439468     Source.obj
 0003:00005480       __ehfuncinfo$_main         00439480     Source.obj
 0003:000054b0       __ehfuncinfo$?pointer_to@?$pointer_traits@PAU?$pair@$$CBV?$basic_string@DU?$char_traits@D@std@@V?$allocator@D@2@@std@@PAVAccount@@@std@@@std@@SAPAU?$pair@$$CBV?$basic_string@DU?$char_traits@D@std@@V?$allocator@D@2@@std@@PAVAccount@@@2@AAU32@@Z 004394b0     Source.obj
 0003:000054d8       __ehfuncinfo$??$addressof@V?$basic_filebuf@DU?$char_traits@D@std@@@std@@@std@@YAPAV?$basic_filebuf@DU?$char_traits@D@std@@@0@AAV10@@Z 004394d8     Source.obj
 0003:00005500       __unwindtable$??$use_facet@V?$codecvt@DDU_Mbstatet@@@std@@@std@@YAABV?$codecvt@DDU_Mbstatet@@@0@ABVlocale@0@@Z 00439500     Source.obj
 0003:00005510       __ehfuncinfo$??$use_facet@V?$codecvt@DDU_Mbstatet@@@std@@@std@@YAABV?$codecvt@DDU_Mbstatet@@@0@ABVlocale@0@@Z 00439510     Source.obj
 0003:0000553c       __ehfuncinfo$??$move@AAV?$basic_string@DU?$char_traits@D@std@@V?$allocator@D@2@@std@@@std@@YA$$QAV?$basic_string@DU?$char_traits@D@std@@V?$allocator@D@2@@0@AAV10@@Z 0043953c     Source.obj
 0003:00005564       __ehfuncinfo$??$_Erase_head@V?$allocator@U?$_Tree_node@U?$pair@$$CBV?$basic_string@DU?$char_traits@D@std@@V?$allocator@D@2@@std@@PAVAccount@@@std@@PAX@std@@@std@@@?$_Tree_val@U?$_Tree_simple_types@U?$pair@$$CBV?$basic_string@DU?$char_traits@D@std@@V?$allocator@D@2@@std@@PAVAccount@@@std@@@std@@@std@@QAEXAAV?$allocator@U?$_Tree_node@U?$pair@$$CBV?$basic_string@DU?$char_traits@D@std@@V?$allocator@D@2@@std@@PAVAccount@@@std@@PAX@std@@@1@@Z 00439564     Source.obj
 0003:0000558c       __ehfuncinfo$??$?0U?$_Tree_node@U?$pair@$$CBV?$basic_string@DU?$char_traits@D@std@@V?$allocator@D@2@@std@@PAVAccount@@@std@@PAX@std@@@?$allocator@U_Container_proxy@std@@@std@@QAE@ABV?$allocator@U?$_Tree_node@U?$pair@$$CBV?$basic_string@DU?$char_traits@D@std@@V?$allocator@D@2@@std@@PAVAccount@@@std@@PAX@std@@@1@@Z 0043958c     Source.obj
 0003:000055b4       __ehfuncinfo$??$_Delete_plain_internal@V?$allocator@U_Container_proxy@std@@@std@@@std@@YAXAAV?$allocator@U_Container_proxy@std@@@0@QAU_Container_proxy@0@@Z 004395b4     Source.obj
 0003:000055dc       __ehfuncinfo$??1_Sentry_base@?$basic_ostream@DU?$char_traits@D@std@@@std@@QAE@XZ 004395dc     Source.obj
 0003:00005604       __unwindtable$??0sentry@?$basic_ostream@DU?$char_traits@D@std@@@std@@QAE@AAV12@@Z 00439604     Source.obj
 0003:0000560c       __ehfuncinfo$??0sentry@?$basic_ostream@DU?$char_traits@D@std@@@std@@QAE@AAV12@@Z 0043960c     Source.obj
 0003:00005634       __ehfuncinfo$??1sentry@?$basic_ostream@DU?$char_traits@D@std@@@std@@QAE@XZ 00439634     Source.obj
 0003:0000565c       __ehfuncinfo$??1?$_Container_proxy_ptr12@V?$allocator@U_Container_proxy@std@@@std@@@std@@QAE@XZ 0043965c     Source.obj
 0003:00005684       __ehfuncinfo$??$_Traits_compare@U?$char_traits@D@std@@@std@@YAHQBDI0I@Z 00439684     Source.obj
 0003:000056ac       __ehfuncinfo$??$addressof@$$CBV?$basic_string@DU?$char_traits@D@std@@V?$allocator@D@2@@std@@@std@@YAPBV?$basic_string@DU?$char_traits@D@std@@V?$allocator@D@2@@0@ABV10@@Z 004396ac     Source.obj
 0003:000056d4       __ehfuncinfo$??$?0D@?$allocator@U_Container_proxy@std@@@std@@QAE@ABV?$allocator@D@1@@Z 004396d4     Source.obj
 0003:000056fc       __ehfuncinfo$??$move@AAV?$allocator@D@std@@@std@@YA$$QAV?$allocator@D@0@AAV10@@Z 004396fc     Source.obj
 0003:00005724       __ehfuncinfo$??$addressof@U?$pair@$$CBV?$basic_string@DU?$char_traits@D@std@@V?$allocator@D@2@@std@@PAVAccount@@@std@@@std@@YAPAU?$pair@$$CBV?$basic_string@DU?$char_traits@D@std@@V?$allocator@D@2@@std@@PAVAccount@@@0@AAU10@@Z 00439724     Source.obj
 0003:0000574c       __ehfuncinfo$??$addressof@$$CBV?$codecvt@DDU_Mbstatet@@@std@@@std@@YAPBV?$codecvt@DDU_Mbstatet@@@0@ABV10@@Z 0043974c     Source.obj
 0003:00005774       __ehfuncinfo$??$addressof@V?$_Tree_val@U?$_Tree_simple_types@U?$pair@$$CBV?$basic_string@DU?$char_traits@D@std@@V?$allocator@D@2@@std@@PAVAccount@@@std@@@std@@@std@@@std@@YAPAV?$_Tree_val@U?$_Tree_simple_types@U?$pair@$$CBV?$basic_string@DU?$char_traits@D@std@@V?$allocator@D@2@@std@@PAVAccount@@@std@@@std@@@0@AAV10@@Z 00439774     Source.obj
 0003:0000579c       __ehfuncinfo$??$_Destroy_in_place@PAD@std@@YAXAAPAD@Z 0043979c     Source.obj
 0003:000057c4       __ehfuncinfo$??$_Max_value@I@std@@YAABIABI0@Z 004397c4     Source.obj
 0003:000057ec       __ehfuncinfo$??$_Pocca@V?$allocator@D@std@@@std@@YAXAAV?$allocator@D@0@ABV10@@Z 004397ec     Source.obj
 0003:00005814       __ehfuncinfo$??$_Construct_in_place@PADABQAD@std@@YAXAAPADABQAD@Z 00439814     Source.obj
 0003:0000583c       __ehfuncinfo$??$_Deallocate@$07$0A@@std@@YAXPAXI@Z 0043983c     Source.obj
 0003:00005864       __ehfuncinfo$??$addressof@V?$_String_val@U?$_Simple_types@D@std@@@std@@@std@@YAPAV?$_String_val@U?$_Simple_types@D@std@@@0@AAV10@@Z 00439864     Source.obj
 0003:0000588c       __ehfuncinfo$??$addressof@$$CBV?$_String_val@U?$_Simple_types@D@std@@@std@@@std@@YAPBV?$_String_val@U?$_Simple_types@D@std@@@0@ABV10@@Z 0043988c     Source.obj
 0003:000058b4       __ehfuncinfo$??$addressof@U_Container_proxy@std@@@std@@YAPAU_Container_proxy@0@AAU10@@Z 004398b4     Source.obj
 0003:000058dc       __ehfuncinfo$??$forward@PAU_Container_base12@std@@@std@@YA$$QAPAU_Container_base12@0@AAPAU10@@Z 004398dc     Source.obj
 0003:00005904       __ehfuncinfo$??$?0U?$default_delete@V_Facet_base@std@@@std@@$0A@@?$unique_ptr@V_Facet_base@std@@U?$default_delete@V_Facet_base@std@@@2@@std@@QAE@PAV_Facet_base@1@@Z 00439904     Source.obj
 0003:0000592c       __catchsym$??$_Insert_string@DU?$char_traits@D@std@@I@std@@YAAAV?$basic_ostream@DU?$char_traits@D@std@@@0@AAV10@QBDI@Z$3 0043992c     Source.obj
 0003:0000593c       __tryblocktable$??$_Insert_string@DU?$char_traits@D@std@@I@std@@YAAAV?$basic_ostream@DU?$char_traits@D@std@@@0@AAV10@QBDI@Z 0043993c     Source.obj
 0003:00005950       __unwindtable$??$_Insert_string@DU?$char_traits@D@std@@I@std@@YAAAV?$basic_ostream@DU?$char_traits@D@std@@@0@AAV10@QBDI@Z 00439950     Source.obj
 0003:00005968       __ehfuncinfo$??$_Insert_string@DU?$char_traits@D@std@@I@std@@YAAAV?$basic_ostream@DU?$char_traits@D@std@@@0@AAV10@QBDI@Z 00439968     Source.obj
 0003:00005998       __ehfuncinfo$??$move@AAV?$basic_istream@DU?$char_traits@D@std@@@std@@@std@@YA$$QAV?$basic_istream@DU?$char_traits@D@std@@@0@AAV10@@Z 00439998     Source.obj
 0003:000059c0       __ehfuncinfo$??$move@AAU?$pair@$$CBV?$basic_string@DU?$char_traits@D@std@@V?$allocator@D@2@@std@@PAVAccount@@@std@@@std@@YA$$QAU?$pair@$$CBV?$basic_string@DU?$char_traits@D@std@@V?$allocator@D@2@@std@@PAVAccount@@@0@AAU10@@Z 004399c0     Source.obj
 0003:000059e8       __ehfuncinfo$??$?0V?$_Tree_iterator@V?$_Tree_val@U?$_Tree_simple_types@U?$pair@$$CBV?$basic_string@DU?$char_traits@D@std@@V?$allocator@D@2@@std@@PAVAccount@@@std@@@std@@@std@@@std@@AB_N$0A@@?$pair@V?$_Tree_iterator@V?$_Tree_val@U?$_Tree_simple_types@U?$pair@$$CBV?$basic_string@DU?$char_traits@D@std@@V?$allocator@D@2@@std@@PAVAccount@@@std@@@std@@@std@@@std@@_N@std@@QAE@$$QAV?$_Tree_iterator@V?$_Tree_val@U?$_Tree_simple_types@U?$pair@$$CBV?$basic_string@DU?$char_traits@D@std@@V?$allocator@D@2@@std@@PAVAccount@@@std@@@std@@@std@@@1@AB_N@Z 004399e8     Source.obj
 0003:00005a10       __ehfuncinfo$??$forward@V?$basic_string@DU?$char_traits@D@std@@V?$allocator@D@2@@std@@@std@@YA$$QAV?$basic_string@DU?$char_traits@D@std@@V?$allocator@D@2@@0@AAV10@@Z 00439a10     Source.obj
 0003:00005a38       __ehfuncinfo$??$forward@AAPAVAccount@@@std@@YAAAPAVAccount@@AAPAV1@@Z 00439a38     Source.obj
 0003:00005a60       __ehfuncinfo$??$?0ABQAU?$_Tree_node@U?$pair@$$CBV?$basic_string@DU?$char_traits@D@std@@V?$allocator@D@2@@std@@PAVAccount@@@std@@PAX@std@@_N$0A@@?$pair@PAU?$_Tree_node@U?$pair@$$CBV?$basic_string@DU?$char_traits@D@std@@V?$allocator@D@2@@std@@PAVAccount@@@std@@PAX@std@@_N@std@@QAE@ABQAU?$_Tree_node@U?$pair@$$CBV?$basic_string@DU?$char_traits@D@std@@V?$allocator@D@2@@std@@PAVAccount@@@std@@PAX@1@$$QA_N@Z 00439a60     Source.obj
 0003:00005a88       __ehfuncinfo$??$forward_as_tuple@V?$basic_string@DU?$char_traits@D@std@@V?$allocator@D@2@@std@@@std@@YA?AV?$tuple@$$QAV?$basic_string@DU?$char_traits@D@std@@V?$allocator@D@2@@std@@@0@$$QAV?$basic_string@DU?$char_traits@D@std@@V?$allocator@D@2@@0@@Z 00439a88     Source.obj
 0003:00005ab0       __ehfuncinfo$??0?$tuple@$$QAV?$basic_string@DU?$char_traits@D@std@@V?$allocator@D@2@@std@@@std@@QAE@$$QAV01@@Z 00439ab0     Source.obj
 0003:00005ad8       __ehfuncinfo$??$forward_as_tuple@$$V@std@@YA?AV?$tuple@$$V@0@XZ 00439ad8     Source.obj
 0003:00005b00       __ehfuncinfo$?_Release@?$_Alloc_construct_ptr@V?$allocator@U?$_Tree_node@U?$pair@$$CBV?$basic_string@DU?$char_traits@D@std@@V?$allocator@D@2@@std@@PAVAccount@@@std@@PAX@std@@@std@@@std@@QAEPAU?$_Tree_node@U?$pair@$$CBV?$basic_string@DU?$char_traits@D@std@@V?$allocator@D@2@@std@@PAVAccount@@@std@@PAX@2@XZ 00439b00     Source.obj
 0003:00005b28       __ehfuncinfo$??1?$_Alloc_construct_ptr@V?$allocator@U?$_Tree_node@U?$pair@$$CBV?$basic_string@DU?$char_traits@D@std@@V?$allocator@D@2@@std@@PAVAccount@@@std@@PAX@std@@@std@@@std@@QAE@XZ 00439b28     Source.obj
 0003:00005b50       __unwindtable$??0?$_Tree_temp_node_alloc@V?$allocator@U?$_Tree_node@U?$pair@$$CBV?$basic_string@DU?$char_traits@D@std@@V?$allocator@D@2@@std@@PAVAccount@@@std@@PAX@std@@@std@@@std@@QAE@AAV?$allocator@U?$_Tree_node@U?$pair@$$CBV?$basic_string@DU?$char_traits@D@std@@V?$allocator@D@2@@std@@PAVAccount@@@std@@PAX@std@@@1@@Z 00439b50     Source.obj
 0003:00005b58       __ehfuncinfo$??0?$_Tree_temp_node_alloc@V?$allocator@U?$_Tree_node@U?$pair@$$CBV?$basic_string@DU?$char_traits@D@std@@V?$allocator@D@2@@std@@PAVAccount@@@std@@PAX@std@@@std@@@std@@QAE@AAV?$allocator@U?$_Tree_node@U?$pair@$$CBV?$basic_string@DU?$char_traits@D@std@@V?$allocator@D@2@@std@@PAVAccount@@@std@@PAX@std@@@1@@Z 00439b58     Source.obj
 0003:00005b80       __ehfuncinfo$??1?$_Tree_temp_node@V?$allocator@U?$_Tree_node@U?$pair@$$CBV?$basic_string@DU?$char_traits@D@std@@V?$allocator@D@2@@std@@PAVAccount@@@std@@PAX@std@@@std@@@std@@QAE@XZ 00439b80     Source.obj
 0003:00005ba8       __unwindtable$??$?0ABUpiecewise_construct_t@std@@V?$tuple@$$QAV?$basic_string@DU?$char_traits@D@std@@V?$allocator@D@2@@std@@@1@V?$tuple@$$V@1@@?$_Tree_temp_node@V?$allocator@U?$_Tree_node@U?$pair@$$CBV?$basic_string@DU?$char_traits@D@std@@V?$allocator@D@2@@std@@PAVAccount@@@std@@PAX@std@@@std@@@std@@QAE@AAV?$allocator@U?$_Tree_node@U?$pair@$$CBV?$basic_string@DU?$char_traits@D@std@@V?$allocator@D@2@@std@@PAVAccount@@@std@@PAX@std@@@1@PAU?$_Tree_node@U?$pair@$$CBV?$basic_string@DU?$char_traits@D@std@@V?$allocator@D@2@@std@@PAVAccount@@@std@@PAX@1@ABUpiecewise_construct_t@1@$$QAV?$tuple@$$QAV?$basic_string@DU?$char_traits@D@std@@V?$allocator@D@2@@std@@@1@$$QAV?$tuple@$$V@1@@Z 00439ba8     Source.obj
 0003:00005bb0       __ehfuncinfo$??$?0ABUpiecewise_construct_t@std@@V?$tuple@$$QAV?$basic_string@DU?$char_traits@D@std@@V?$allocator@D@2@@std@@@1@V?$tuple@$$V@1@@?$_Tree_temp_node@V?$allocator@U?$_Tree_node@U?$pair@$$CBV?$basic_string@DU?$char_traits@D@std@@V?$allocator@D@2@@std@@PAVAccount@@@std@@PAX@std@@@std@@@std@@QAE@AAV?$allocator@U?$_Tree_node@U?$pair@$$CBV?$basic_string@DU?$char_traits@D@std@@V?$allocator@D@2@@std@@PAVAccount@@@std@@PAX@std@@@1@PAU?$_Tree_node@U?$pair@$$CBV?$basic_string@DU?$char_traits@D@std@@V?$allocator@D@2@@std@@PAVAccount@@@std@@PAX@1@ABUpiecewise_construct_t@1@$$QAV?$tuple@$$QAV?$basic_string@DU?$char_traits@D@std@@V?$allocator@D@2@@std@@@1@$$QAV?$tuple@$$V@1@@Z 00439bb0     Source.obj
 0003:00005bd8       __ehfuncinfo$??$?0PAU?$_Tree_node@U?$pair@$$CBV?$basic_string@DU?$char_traits@D@std@@V?$allocator@D@2@@std@@PAVAccount@@@std@@PAX@std@@_N$0A@@?$pair@PAU?$_Tree_node@U?$pair@$$CBV?$basic_string@DU?$char_traits@D@std@@V?$allocator@D@2@@std@@PAVAccount@@@std@@PAX@std@@_N@std@@QAE@$$QAPAU?$_Tree_node@U?$pair@$$CBV?$basic_string@DU?$char_traits@D@std@@V?$allocator@D@2@@std@@PAVAccount@@@std@@PAX@1@$$QA_N@Z 00439bd8     Source.obj
 0003:00005c00       __ehfuncinfo$??$_Erase_tree@V?$allocator@U?$_Tree_node@U?$pair@$$CBV?$basic_string@DU?$char_traits@D@std@@V?$allocator@D@2@@std@@PAVAccount@@@std@@PAX@std@@@std@@@?$_Tree_val@U?$_Tree_simple_types@U?$pair@$$CBV?$basic_string@DU?$char_traits@D@std@@V?$allocator@D@2@@std@@PAVAccount@@@std@@@std@@@std@@QAEXAAV?$allocator@U?$_Tree_node@U?$pair@$$CBV?$basic_string@DU?$char_traits@D@std@@V?$allocator@D@2@@std@@PAVAccount@@@std@@PAX@std@@@1@PAU?$_Tree_node@U?$pair@$$CBV?$basic_string@DU?$char_traits@D@std@@V?$allocator@D@2@@std@@PAVAccount@@@std@@PAX@1@@Z 00439c00     Source.obj
 0003:00005c28       __ehfuncinfo$??$_Freenode0@V?$allocator@U?$_Tree_node@U?$pair@$$CBV?$basic_string@DU?$char_traits@D@std@@V?$allocator@D@2@@std@@PAVAccount@@@std@@PAX@std@@@std@@@?$_Tree_node@U?$pair@$$CBV?$basic_string@DU?$char_traits@D@std@@V?$allocator@D@2@@std@@PAVAccount@@@std@@PAX@std@@SAXAAV?$allocator@U?$_Tree_node@U?$pair@$$CBV?$basic_string@DU?$char_traits@D@std@@V?$allocator@D@2@@std@@PAVAccount@@@std@@PAX@std@@@1@PAU01@@Z 00439c28     Source.obj
 0003:00005c50       __ehfuncinfo$??$_Deallocate_plain@V?$allocator@U_Container_proxy@std@@@std@@@std@@YAXAAV?$allocator@U_Container_proxy@std@@@0@QAU_Container_proxy@0@@Z 00439c50     Source.obj
 0003:00005c78       __ehfuncinfo$??$forward@V?$allocator@D@std@@@std@@YA$$QAV?$allocator@D@0@AAV10@@Z 00439c78     Source.obj
 0003:00005ca0       __ehfuncinfo$??$forward@ABU?$less@V?$basic_string@DU?$char_traits@D@std@@V?$allocator@D@2@@std@@@std@@@std@@YAABU?$less@V?$basic_string@DU?$char_traits@D@std@@V?$allocator@D@2@@std@@@0@ABU10@@Z 00439ca0     Source.obj
 0003:00005cc8       __ehfuncinfo$??$forward@U_Zero_then_variadic_args_t@std@@@std@@YA$$QAU_Zero_then_variadic_args_t@0@AAU10@@Z 00439cc8     Source.obj
 0003:00005cf0       __ehfuncinfo$??$addressof@PAD@std@@YAPAPADAAPAD@Z 00439cf0     Source.obj
 0003:00005d18       __ehfuncinfo$??$forward@ABQAD@std@@YAABQADABQAD@Z 00439d18     Source.obj
 0003:00005d40       __ehfuncinfo$??$forward@ABV?$allocator@D@std@@@std@@YAABV?$allocator@D@0@ABV10@@Z 00439d40     Source.obj
 0003:00005d68       __ehfuncinfo$??$_Construct_in_place@PAU?$_Tree_node@U?$pair@$$CBV?$basic_string@DU?$char_traits@D@std@@V?$allocator@D@2@@std@@PAVAccount@@@std@@PAX@std@@ABQAU12@@std@@YAXAAPAU?$_Tree_node@U?$pair@$$CBV?$basic_string@DU?$char_traits@D@std@@V?$allocator@D@2@@std@@PAVAccount@@@std@@PAX@0@ABQAU10@@Z 00439d68     Source.obj
 0003:00005d90       __ehfuncinfo$??$_Destroy_in_place@PAU?$_Tree_node@U?$pair@$$CBV?$basic_string@DU?$char_traits@D@std@@V?$allocator@D@2@@std@@PAVAccount@@@std@@PAX@std@@@std@@YAXAAPAU?$_Tree_node@U?$pair@$$CBV?$basic_string@DU?$char_traits@D@std@@V?$allocator@D@2@@std@@PAVAccount@@@std@@PAX@0@@Z 00439d90     Source.obj
 0003:00005db8       __ehfuncinfo$??$addressof@$$CBV?$_Tree_val@U?$_Tree_simple_types@U?$pair@$$CBV?$basic_string@DU?$char_traits@D@std@@V?$allocator@D@2@@std@@PAVAccount@@@std@@@std@@@std@@@std@@YAPBV?$_Tree_val@U?$_Tree_simple_types@U?$pair@$$CBV?$basic_string@DU?$char_traits@D@std@@V?$allocator@D@2@@std@@PAVAccount@@@std@@@std@@@0@ABV10@@Z 00439db8     Source.obj
 0003:00005de0       __ehfuncinfo$??$_Traits_equal@U?$char_traits@D@std@@@std@@YA_NQBDI0I@Z 00439de0     Source.obj
 0003:00005e08       __ehfuncinfo$??1_Sentry_base@?$basic_istream@DU?$char_traits@D@std@@@std@@QAE@XZ 00439e08     Source.obj
 0003:00005e30       __unwindtable$??0sentry@?$basic_istream@DU?$char_traits@D@std@@@std@@QAE@AAV12@_N@Z 00439e30     Source.obj
 0003:00005e38       __ehfuncinfo$??0sentry@?$basic_istream@DU?$char_traits@D@std@@@std@@QAE@AAV12@_N@Z 00439e38     Source.obj
 0003:00005e60       __ehfuncinfo$??$?0AAPAU?$_Tree_node@U?$pair@$$CBV?$basic_string@DU?$char_traits@D@std@@V?$allocator@D@2@@std@@PAVAccount@@@std@@PAX@std@@_N$0A@@?$pair@PAU?$_Tree_node@U?$pair@$$CBV?$basic_string@DU?$char_traits@D@std@@V?$allocator@D@2@@std@@PAVAccount@@@std@@PAX@std@@_N@std@@QAE@AAPAU?$_Tree_node@U?$pair@$$CBV?$basic_string@DU?$char_traits@D@std@@V?$allocator@D@2@@std@@PAVAccount@@@std@@PAX@1@$$QA_N@Z 00439e60     Source.obj
 0003:00005e88       __ehfuncinfo$??$forward@U?$pair@$$CBV?$basic_string@DU?$char_traits@D@std@@V?$allocator@D@2@@std@@PAVAccount@@@std@@@std@@YA$$QAU?$pair@$$CBV?$basic_string@DU?$char_traits@D@std@@V?$allocator@D@2@@std@@PAVAccount@@@0@AAU10@@Z 00439e88     Source.obj
 0003:00005eb0       __unwindtable$??$?0U?$pair@$$CBV?$basic_string@DU?$char_traits@D@std@@V?$allocator@D@2@@std@@PAVAccount@@@std@@@?$_Tree_temp_node@V?$allocator@U?$_Tree_node@U?$pair@$$CBV?$basic_string@DU?$char_traits@D@std@@V?$allocator@D@2@@std@@PAVAccount@@@std@@PAX@std@@@std@@@std@@QAE@AAV?$allocator@U?$_Tree_node@U?$pair@$$CBV?$basic_string@DU?$char_traits@D@std@@V?$allocator@D@2@@std@@PAVAccount@@@std@@PAX@std@@@1@PAU?$_Tree_node@U?$pair@$$CBV?$basic_string@DU?$char_traits@D@std@@V?$allocator@D@2@@std@@PAVAccount@@@std@@PAX@1@$$QAU?$pair@$$CBV?$basic_string@DU?$char_traits@D@std@@V?$allocator@D@2@@std@@PAVAccount@@@1@@Z 00439eb0     Source.obj
 0003:00005eb8       __ehfuncinfo$??$?0U?$pair@$$CBV?$basic_string@DU?$char_traits@D@std@@V?$allocator@D@2@@std@@PAVAccount@@@std@@@?$_Tree_temp_node@V?$allocator@U?$_Tree_node@U?$pair@$$CBV?$basic_string@DU?$char_traits@D@std@@V?$allocator@D@2@@std@@PAVAccount@@@std@@PAX@std@@@std@@@std@@QAE@AAV?$allocator@U?$_Tree_node@U?$pair@$$CBV?$basic_string@DU?$char_traits@D@std@@V?$allocator@D@2@@std@@PAVAccount@@@std@@PAX@std@@@1@PAU?$_Tree_node@U?$pair@$$CBV?$basic_string@DU?$char_traits@D@std@@V?$allocator@D@2@@std@@PAVAccount@@@std@@PAX@1@$$QAU?$pair@$$CBV?$basic_string@DU?$char_traits@D@std@@V?$allocator@D@2@@std@@PAVAccount@@@1@@Z 00439eb8     Source.obj
 0003:00005ee0       __ehfuncinfo$??$forward@V?$_Tree_iterator@V?$_Tree_val@U?$_Tree_simple_types@U?$pair@$$CBV?$basic_string@DU?$char_traits@D@std@@V?$allocator@D@2@@std@@PAVAccount@@@std@@@std@@@std@@@std@@@std@@YA$$QAV?$_Tree_iterator@V?$_Tree_val@U?$_Tree_simple_types@U?$pair@$$CBV?$basic_string@DU?$char_traits@D@std@@V?$allocator@D@2@@std@@PAVAccount@@@std@@@std@@@std@@@0@AAV10@@Z 00439ee0     Source.obj
 0003:00005f08       __ehfuncinfo$??$forward@AB_N@std@@YAAB_NAB_N@Z 00439f08     Source.obj
 0003:00005f30       __ehfuncinfo$??$forward@ABQAU?$_Tree_node@U?$pair@$$CBV?$basic_string@DU?$char_traits@D@std@@V?$allocator@D@2@@std@@PAVAccount@@@std@@PAX@std@@@std@@YAABQAU?$_Tree_node@U?$pair@$$CBV?$basic_string@DU?$char_traits@D@std@@V?$allocator@D@2@@std@@PAVAccount@@@std@@PAX@0@ABQAU10@@Z 00439f30     Source.obj
 0003:00005f58       __ehfuncinfo$??$forward@_N@std@@YA$$QA_NAA_N@Z 00439f58     Source.obj
 0003:00005f80       __ehfuncinfo$??$?0V?$basic_string@DU?$char_traits@D@std@@V?$allocator@D@2@@std@@$$V$0A@@?$tuple@$$QAV?$basic_string@DU?$char_traits@D@std@@V?$allocator@D@2@@std@@@std@@QAE@$$QAV?$basic_string@DU?$char_traits@D@std@@V?$allocator@D@2@@1@@Z 00439f80     Source.obj
 0003:00005fa8       __ehfuncinfo$??$forward@ABUpiecewise_construct_t@std@@@std@@YAABUpiecewise_construct_t@0@ABU10@@Z 00439fa8     Source.obj
 0003:00005fd0       __ehfuncinfo$??$forward@V?$tuple@$$QAV?$basic_string@DU?$char_traits@D@std@@V?$allocator@D@2@@std@@@std@@@std@@YA$$QAV?$tuple@$$QAV?$basic_string@DU?$char_traits@D@std@@V?$allocator@D@2@@std@@@0@AAV10@@Z 00439fd0     Source.obj
 0003:00005ff8       __ehfuncinfo$??$forward@V?$tuple@$$V@std@@@std@@YA$$QAV?$tuple@$$V@0@AAV10@@Z 00439ff8     Source.obj
 0003:00006020       __ehfuncinfo$??$_Construct_in_place@PAU?$_Tree_node@U?$pair@$$CBV?$basic_string@DU?$char_traits@D@std@@V?$allocator@D@2@@std@@PAVAccount@@@std@@PAX@std@@AAPAU12@@std@@YAXAAPAU?$_Tree_node@U?$pair@$$CBV?$basic_string@DU?$char_traits@D@std@@V?$allocator@D@2@@std@@PAVAccount@@@std@@PAX@0@0@Z 0043a020     Source.obj
 0003:00006048       __ehfuncinfo$??$forward@PAU?$_Tree_node@U?$pair@$$CBV?$basic_string@DU?$char_traits@D@std@@V?$allocator@D@2@@std@@PAVAccount@@@std@@PAX@std@@@std@@YA$$QAPAU?$_Tree_node@U?$pair@$$CBV?$basic_string@DU?$char_traits@D@std@@V?$allocator@D@2@@std@@PAVAccount@@@std@@PAX@0@AAPAU10@@Z 0043a048     Source.obj
 0003:00006070       __ehfuncinfo$??$_Freenode@V?$allocator@U?$_Tree_node@U?$pair@$$CBV?$basic_string@DU?$char_traits@D@std@@V?$allocator@D@2@@std@@PAVAccount@@@std@@PAX@std@@@std@@@?$_Tree_node@U?$pair@$$CBV?$basic_string@DU?$char_traits@D@std@@V?$allocator@D@2@@std@@PAVAccount@@@std@@PAX@std@@SAXAAV?$allocator@U?$_Tree_node@U?$pair@$$CBV?$basic_string@DU?$char_traits@D@std@@V?$allocator@D@2@@std@@PAVAccount@@@std@@PAX@std@@@1@PAU01@@Z 0043a070     Source.obj
 0003:00006098       __ehfuncinfo$??$addressof@PAU?$_Tree_node@U?$pair@$$CBV?$basic_string@DU?$char_traits@D@std@@V?$allocator@D@2@@std@@PAVAccount@@@std@@PAX@std@@@std@@YAPAPAU?$_Tree_node@U?$pair@$$CBV?$basic_string@DU?$char_traits@D@std@@V?$allocator@D@2@@std@@PAVAccount@@@std@@PAX@0@AAPAU10@@Z 0043a098     Source.obj
 0003:000060c0       __ehfuncinfo$??$?MDU?$char_traits@D@std@@V?$allocator@D@1@@std@@YA_NABV?$basic_string@DU?$char_traits@D@std@@V?$allocator@D@2@@0@0@Z 0043a0c0     Source.obj
 0003:000060e8       __ehfuncinfo$??$forward@AAPAV_Facet_base@std@@@std@@YAAAPAV_Facet_base@0@AAPAV10@@Z 0043a0e8     Source.obj
 0003:00006110       __ehfuncinfo$??$forward@AAPAU?$_Tree_node@U?$pair@$$CBV?$basic_string@DU?$char_traits@D@std@@V?$allocator@D@2@@std@@PAVAccount@@@std@@PAX@std@@@std@@YAAAPAU?$_Tree_node@U?$pair@$$CBV?$basic_string@DU?$char_traits@D@std@@V?$allocator@D@2@@std@@PAVAccount@@@std@@PAX@0@AAPAU10@@Z 0043a110     Source.obj
 0003:00006138       __ehfuncinfo$??$?0U_Exact_args_t@std@@$0A@@?$tuple@$$V@std@@QAE@U_Exact_args_t@1@@Z 0043a138     Source.obj
 0003:00006160       __ehfuncinfo$??$move@AAV?$tuple@$$QAV?$basic_string@DU?$char_traits@D@std@@V?$allocator@D@2@@std@@@std@@@std@@YA$$QAV?$tuple@$$QAV?$basic_string@DU?$char_traits@D@std@@V?$allocator@D@2@@std@@@0@AAV10@@Z 0043a160     Source.obj
 0003:00006188       __ehfuncinfo$??$get@$0A@$$QAV?$basic_string@DU?$char_traits@D@std@@V?$allocator@D@2@@std@@@std@@YA$$QAV?$basic_string@DU?$char_traits@D@std@@V?$allocator@D@2@@0@$$QAV?$tuple@$$QAV?$basic_string@DU?$char_traits@D@std@@V?$allocator@D@2@@std@@@0@@Z 0043a188     Source.obj
 0003:000062c0       __ehfuncinfo$?find@?$_Narrow_char_traits@DH@std@@SAPBDQBDIABD@Z 0043a2c0     StaticLib:trim.obj
 0003:000062e8       __ehfuncinfo$?find_first_not_of@?$basic_string@DU?$char_traits@D@std@@V?$allocator@D@2@@std@@QBEIQBDI@Z 0043a2e8     StaticLib:trim.obj
 0003:00006310       __ehfuncinfo$?find_last_not_of@?$basic_string@DU?$char_traits@D@std@@V?$allocator@D@2@@std@@QBEIQBDI@Z 0043a310     StaticLib:trim.obj
 0003:00006338       __ehfuncinfo$??$_Traits_find_last_not_of@U?$char_traits@D@std@@@std@@YAIQBDII0IU?$integral_constant@_N$00@0@@Z 0043a338     StaticLib:trim.obj
 0003:00006360       __ehfuncinfo$??$_Traits_find_last_not_of@U?$char_traits@D@std@@@std@@YAIQBDII0IU?$integral_constant@_N$0A@@0@@Z 0043a360     StaticLib:trim.obj
 0003:00006388       __ehfuncinfo$??$_Traits_find_first_not_of@U?$char_traits@D@std@@@std@@YAIQBDII0IU?$integral_constant@_N$00@0@@Z 0043a388     StaticLib:trim.obj
 0003:000063b0       __ehfuncinfo$??$_Traits_find_first_not_of@U?$char_traits@D@std@@@std@@YAIQBDII0IU?$integral_constant@_N$0A@@0@@Z 0043a3b0     StaticLib:trim.obj
 0003:000063d8       __unwindtable$?_Facet_Register@std@@YAXPAV_Facet_base@1@@Z 0043a3d8     msvcprtd:locale0_implib.obj
 0003:000063e0       __ehfuncinfo$?_Facet_Register@std@@YAXPAV_Facet_base@1@@Z 0043a3e0     msvcprtd:locale0_implib.obj
 0003:00006408       __sehtable$?__scrt_common_main_seh@@YAHXZ 0043a408     MSVCRTD:exe_main.obj
 0003:00006428       __sehtable$___scrt_is_nonwritable_in_current_image 0043a428     MSVCRTD:utility.obj
 0003:00006470       __sehtable$?notify_debugger@@YAXABUtagEXCEPTION_VISUALCPP_DEBUG_INFO@@@Z 0043a470     MSVCRTD:error.obj
 0004:00000614       ?_Fac_tidy_reg@std@@3U_Fac_tidy_reg_t@1@B 0043b614     msvcprtd:locale0_implib.obj
 0004:00000618       ?_Fac_head@std@@3PAU_Fac_node@1@A 0043b618     msvcprtd:locale0_implib.obj
 0004:0000061d       ?init@?1??_RTC_InitBase@@9@4_NA 0043b61d     MSVCRTD:init.obj
 0004:00000628       ?is_initialized_as_dll@@3_NA 0043b628     MSVCRTD:utility.obj
 0004:00000629       ?module_local_atexit_table_initialized@@3_NA 0043b629     MSVCRTD:utility.obj
 0004:0000062c       ?module_local_atexit_table@@3U_onexit_table_t@@A 0043b62c     MSVCRTD:utility.obj
 0004:00000638       ?module_local_at_quick_exit_table@@3U_onexit_table_t@@A 0043b638     MSVCRTD:utility.obj
 0004:00000660       _GS_ExceptionRecord        0043b660     MSVCRTD:gs_report.obj
 0004:000006b0       _GS_ContextRecord          0043b6b0     MSVCRTD:gs_report.obj
 0004:00000a1c       ?_RTC_ErrorReportFunc@@3P6AHHPBDH00ZZA 0043ba1c     MSVCRTD:userapi.obj
 0004:00000a20       ?_RTC_ErrorReportFuncW@@3P6AHHPB_WH00ZZA 0043ba20     MSVCRTD:userapi.obj
 0004:00000a54       ?mspdb@@3PAUHINSTANCE__@@A 0043ba54     MSVCRTD:pdblkup.obj
 0004:00000a58       ?alreadyTried@?1??GetPdbDll@@YAPAUHINSTANCE__@@XZ@4_NA 0043ba58     MSVCRTD:pdblkup.obj
 0004:00000a59       ?PDBOK@?1??_RTC_GetSrcLine@@YAHPAEPA_WKPAH1K@Z@4_NA 0043ba59     MSVCRTD:pdblkup.obj
 0005:0000165e       .idata$6                   0043d65e     msvcprtd:MSVCP140D.dll
 0005:000017de       .idata$6                   0043d7de     vcruntimed:VCRUNTIME140D.dll
 0005:00001b7e       .idata$6                   0043db7e     ucrtd:ucrtbased.dll
 0005:00001d62       .idata$6                   0043dd62     kernel32:KERNEL32.dll
 0006:00000000       __0A074437_vcruntime_new@h 0043f000     Source.obj
 0006:00000001       __F66CEB67_corecrt_stdio_config@h 0043f001     Source.obj
 0006:00000002       __101834BA_corecrt_wstdio@h 0043f002     Source.obj
 0006:00000003       __AD6A91B7_stdio@h         0043f003     Source.obj
 0006:00000004       __367CC694_corecrt_memcpy_s@h 0043f004     Source.obj
 0006:00000005       __35D7DDB3_corecrt_memory@h 0043f005     Source.obj
 0006:00000006       __DC9673E3_corecrt_wstring@h 0043f006     Source.obj
 0006:00000007       __A29A7DFB_string@h        0043f007     Source.obj
 0006:00000008       __5467428D_corecrt_wconio@h 0043f008     Source.obj
 0006:00000009       __4442441F_corecrt_wio@h   0043f009     Source.obj
 0006:0000000a       __45F4AF76_corecrt_wtime@h 0043f00a     Source.obj
 0006:0000000b       __186FF47F_stat@h          0043f00b     Source.obj
 0006:0000000c       __534C724A_wchar@h         0043f00c     Source.obj
 0006:0000000d       __09340588_corecrt_math@h  0043f00d     Source.obj
 0006:0000000e       __24E9E95F_stdlib@h        0043f00e     Source.obj
 0006:0000000f       __86D65F0C_cstdlib         0043f00f     Source.obj
 0006:00000010       __843B0F21_limits          0043f010     Source.obj
 0006:00000011       __FFC6471F_type_traits     0043f011     Source.obj
 0006:00000012       __B0C4CEA9_malloc@h        0043f012     Source.obj
 0006:00000013       __69245D52_vcruntime_exception@h 0043f013     Source.obj
 0006:00000014       __536DB091_exception       0043f014     Source.obj
 0006:00000015       __86E03ACD_xutility        0043f015     Source.obj
 0006:00000016       __DB4EB944_xmemory         0043f016     Source.obj
 0006:00000017       __AF9D3FD8_xstring         0043f017     Source.obj
 0006:00000018       __7242C389_ctype@h         0043f018     Source.obj
 0006:00000019       __4C468533_string          0043f019     Source.obj
 0006:0000001a       __6A0B36D1_cmath           0043f01a     Source.obj
 0006:0000001b       __DA238ACC_stdexcept       0043f01b     Source.obj
 0006:0000001c       __65AE1ACD_xcall_once@h    0043f01c     Source.obj
 0006:0000001d       __DAF308ED_system_error    0043f01d     Source.obj
 0006:0000001e       __36900320_vcruntime_typeinfo@h 0043f01e     Source.obj
 0006:0000001f       __F63FC9D4_typeinfo        0043f01f     Source.obj
 0006:00000020       __389503AF_memory          0043f020     Source.obj
 0006:00000021       __14D054A0_xfacet          0043f021     Source.obj
 0006:00000022       __E9B62A1C_xlocinfo        0043f022     Source.obj
 0006:00000023       __70A34BE9_xlocale         0043f023     Source.obj
 0006:00000024       __D0535D0F_xiosbase        0043f024     Source.obj
 0006:00000025       __EE242DFE_xlocnum         0043f025     Source.obj
 0006:00000026       __D17CECDD_ios             0043f026     Source.obj
 0006:00000027       __E3036671_account@h       0043f027     Source.obj
 0006:00000028       __A271BF66_simple_account@h 0043f028     Source.obj
 0006:00000029       __C425D65E_bonus_account@h 0043f029     Source.obj
 0006:0000002a       __427A1E76_service_account@h 0043f02a     Source.obj
 0006:0000002b       __ED4937BA_balanced_account@h 0043f02b     Source.obj
 0006:0000002c       __F62BD4FE_fstream         0043f02c     Source.obj
 0006:0000002d       __CC282F90_tuple           0043f02d     Source.obj
 0006:0000002e       __6322CAD3_xtree           0043f02e     Source.obj
 0006:0000002f       __D563ADF9_manager@h       0043f02f     Source.obj
 0006:00000030       __BDBDEED8_Source@cpp      0043f030     Source.obj
 0006:00000031       __B1DBDA87_utility         0043f031     Source.obj
 0006:00000032       __D1FF3835_map             0043f032     Source.obj
 0006:00000033       __0063A417_istream         0043f033     Source.obj
 0006:00000034       __63B3912D_ostream         0043f034     Source.obj
 0006:00000035       __D8833270_streambuf       0043f035     Source.obj
 0006:00000036       __48D2DAA7_iosfwd          0043f036     Source.obj
 0006:00000037       __46C44D95_xstddef         0043f037     Source.obj
 0006:00000038       __59613C47_xatomic@h       0043f038     Source.obj
 0006:00000044       __6F70F95C_pch@h           0043f044     StaticLib:trim.obj
 0006:00000045       __59CEAA7D_StaticLib@pch   0043f045     StaticLib:trim.obj
 0006:00000046       __46C44D95_xstddef         0043f046     StaticLib:trim.obj
 0006:00000047       __B1DBDA87_utility         0043f047     StaticLib:trim.obj
 0006:00000048       __EAE5EE9D_trim@cpp        0043f048     StaticLib:trim.obj
 0006:00000049       __4C468533_string          0043f049     StaticLib:trim.obj
 0006:0000004a       __7242C389_ctype@h         0043f04a     StaticLib:trim.obj
 0006:0000004b       __AF9D3FD8_xstring         0043f04b     StaticLib:trim.obj
 0006:0000004c       __DB4EB944_xmemory         0043f04c     StaticLib:trim.obj
 0006:0000004d       __86E03ACD_xutility        0043f04d     StaticLib:trim.obj
 0006:0000004e       __536DB091_exception       0043f04e     StaticLib:trim.obj
 0006:0000004f       __69245D52_vcruntime_exception@h 0043f04f     StaticLib:trim.obj
 0006:00000050       __B0C4CEA9_malloc@h        0043f050     StaticLib:trim.obj
 0006:00000051       __FFC6471F_type_traits     0043f051     StaticLib:trim.obj
 0006:00000052       __843B0F21_limits          0043f052     StaticLib:trim.obj
 0006:00000053       __86D65F0C_cstdlib         0043f053     StaticLib:trim.obj
 0006:00000054       __24E9E95F_stdlib@h        0043f054     StaticLib:trim.obj
 0006:00000055       __09340588_corecrt_math@h  0043f055     StaticLib:trim.obj
 0006:00000056       __534C724A_wchar@h         0043f056     StaticLib:trim.obj
 0006:00000057       __186FF47F_stat@h          0043f057     StaticLib:trim.obj
 0006:00000058       __45F4AF76_corecrt_wtime@h 0043f058     StaticLib:trim.obj
 0006:00000059       __4442441F_corecrt_wio@h   0043f059     StaticLib:trim.obj
 0006:0000005a       __5467428D_corecrt_wconio@h 0043f05a     StaticLib:trim.obj
 0006:0000005b       __A29A7DFB_string@h        0043f05b     StaticLib:trim.obj
 0006:0000005c       __DC9673E3_corecrt_wstring@h 0043f05c     StaticLib:trim.obj
 0006:0000005d       __35D7DDB3_corecrt_memory@h 0043f05d     StaticLib:trim.obj
 0006:0000005e       __367CC694_corecrt_memcpy_s@h 0043f05e     StaticLib:trim.obj
 0006:0000005f       __AD6A91B7_stdio@h         0043f05f     StaticLib:trim.obj
 0006:00000060       __101834BA_corecrt_wstdio@h 0043f060     StaticLib:trim.obj
 0006:00000061       __F66CEB67_corecrt_stdio_config@h 0043f061     StaticLib:trim.obj
 0006:00000062       __0A074437_vcruntime_new@h 0043f062     StaticLib:trim.obj
 0006:00000069       __59CEAA7D_StaticLib@pch   0043f069     StaticLib:pch.obj
 0008:00000170       $R000000                   00441170     * linker generated manifest res *
